     1 00000000                                 [FORMAT "WCOFF"]
     2 00000000                                 [INSTRSET "i486p"]
     3 00000000                                 [OPTIMIZE 1]
     4 00000000                                 [OPTION 1]
     5 00000000                                 [BITS 32]
     6 00000000                                 	EXTERN	_task_now
     7 00000000                                 	EXTERN	_memman_alloc_4k
     8 00000000                                 	EXTERN	_timer_alloc
     9 00000000                                 	EXTERN	_timer_init
    10 00000000                                 	EXTERN	_file_readfat
    11 00000000                                 	EXTERN	_io_cli
    12 00000000                                 	EXTERN	_fifo32_status
    13 00000000                                 	EXTERN	_fifo32_get
    14 00000000                                 	EXTERN	_io_sti
    15 00000000                                 	EXTERN	_keytable0
    16 00000000                                 	EXTERN	_timer_cancel
    17 00000000                                 	EXTERN	_timer_settime
    18 00000000                                 	EXTERN	_boxfill8
    19 00000000                                 	EXTERN	_sheet_refresh
    20 00000000                                 	EXTERN	_task_sleep
    21 00000000                                 	EXTERN	_putfonts8_asc_sht
    22 00000000                                 	EXTERN	_memman_total
    23 00000000                                 	EXTERN	_sprintf
    24 00000000                                 	EXTERN	_timer_free
    25 00000000                                 	EXTERN	_memman_free_4k
    26 00000000                                 	EXTERN	_open_console
    27 00000000                                 	EXTERN	_sheet_slide
    28 00000000                                 	EXTERN	_sheet_updown
    29 00000000                                 	EXTERN	_fifo32_put
    30 00000000                                 	EXTERN	_open_constask
    31 00000000                                 	EXTERN	_file_search
    32 00000000                                 	EXTERN	_file_loadfile
    33 00000000                                 	EXTERN	_set_segmdesc
    34 00000000                                 	EXTERN	_start_app
    35 00000000                                 	EXTERN	_timer_cancelall
    36 00000000                                 	EXTERN	_sheet_free
    37 00000000                                 	EXTERN	_io_in8
    38 00000000                                 	EXTERN	_io_out8
    39 00000000                                 	EXTERN	_memman_free
    40 00000000                                 	EXTERN	_memman_alloc
    41 00000000                                 	EXTERN	_memman_init
    42 00000000                                 	EXTERN	_putfonts8_asc
    43 00000000                                 	EXTERN	_sheet_alloc
    44 00000000                                 	EXTERN	_sheet_setbuf
    45 00000000                                 	EXTERN	_make_window8
    46 00000000                                 	EXTERN	_memman_set_strategy
    47 00000000                                 	EXTERN	_taskctl
    48 00000000                                 	EXTERN	_task_set_priority
    49 00000000                                 	EXTERN	_strcmp
    50 00000000                                 	EXTERN	_semaphore_wait
    51 00000000                                 	EXTERN	_semaphore_signal
    52 00000000                                 	EXTERN	_semaphore_free
    53 00000000                                 	EXTERN	_semaphore_alloc
    54 00000000                                 	EXTERN	_msgqueue_free
    55 00000000                                 	EXTERN	_msgqueue_alloc
    56 00000000                                 [FILE "console.c"]
    57                                          [SECTION .text]
    58 00000000                                 	GLOBAL	_str_to_int
    59 00000000                                 _str_to_int:
    60 00000000 55                              	PUSH	EBP
    61 00000001 31 D2                           	XOR	EDX,EDX
    62 00000003 89 E5                           	MOV	EBP,ESP
    63 00000005 31 C9                           	XOR	ECX,ECX
    64 00000007 53                              	PUSH	EBX
    65 00000008 8B 5D 08                        	MOV	EBX,DWORD [8+EBP]
    66 0000000B 8A 03                           	MOV	AL,BYTE [EBX]
    67 0000000D 83 E8 30                        	SUB	EAX,48
    68 00000010 3C 09                           	CMP	AL,9
    69 00000012 77 16                           	JA	L7
    70 00000014                                 L5:
    71 00000014 6B C2 0A                        	IMUL	EAX,EDX,10
    72 00000017 0F BE 14 19                     	MOVSX	EDX,BYTE [ECX+EBX*1]
    73 0000001B 41                              	INC	ECX
    74 0000001C 8D 54 02 D0                     	LEA	EDX,DWORD [-48+EDX+EAX*1]
    75 00000020 8A 04 19                        	MOV	AL,BYTE [ECX+EBX*1]
    76 00000023 83 E8 30                        	SUB	EAX,48
    77 00000026 3C 09                           	CMP	AL,9
    78 00000028 76 EA                           	JBE	L5
    79 0000002A                                 L7:
    80 0000002A 5B                              	POP	EBX
    81 0000002B 89 D0                           	MOV	EAX,EDX
    82 0000002D 5D                              	POP	EBP
    83 0000002E C3                              	RET
    84 0000002F                                 	GLOBAL	_parse_two_ints
    85 0000002F                                 _parse_two_ints:
    86 0000002F 55                              	PUSH	EBP
    87 00000030 89 E5                           	MOV	EBP,ESP
    88 00000032 57                              	PUSH	EDI
    89 00000033 56                              	PUSH	ESI
    90 00000034 31 FF                           	XOR	EDI,EDI
    91 00000036 53                              	PUSH	EBX
    92 00000037 31 DB                           	XOR	EBX,EBX
    93 00000039 83 EC 10                        	SUB	ESP,16
    94 0000003C 8B 75 08                        	MOV	ESI,DWORD [8+EBP]
    95 0000003F 8A 06                           	MOV	AL,BYTE [ESI]
    96 00000041 3C 20                           	CMP	AL,32
    97 00000043 74 10                           	JE	L10
    98 00000045 84 C0                           	TEST	AL,AL
    99 00000047 74 0C                           	JE	L10
   100 00000049                                 L13:
   101 00000049 43                              	INC	EBX
   102 0000004A 8A 04 33                        	MOV	AL,BYTE [EBX+ESI*1]
   103 0000004D 3C 20                           	CMP	AL,32
   104 0000004F 74 04                           	JE	L10
   105 00000051 84 C0                           	TEST	AL,AL
   106 00000053 75 F4                           	JNE	L13
   107 00000055                                 L10:
   108 00000055 80 3C 33 20                     	CMP	BYTE [EBX+ESI*1],32
   109 00000059 0F 84 00000091                  	JE	L17
   110 0000005F                                 L36:
   111 0000005F 8A 14 33                        	MOV	DL,BYTE [EBX+ESI*1]
   112 00000062 31 C9                           	XOR	ECX,ECX
   113 00000064 8D 42 D0                        	LEA	EAX,DWORD [-48+EDX]
   114 00000067 3C 09                           	CMP	AL,9
   115 00000069 77 15                           	JA	L19
   116 0000006B                                 L22:
   117 0000006B 43                              	INC	EBX
   118 0000006C 88 54 0D E4                     	MOV	BYTE [-28+EBP+ECX*1],DL
   119 00000070 41                              	INC	ECX
   120 00000071 8A 14 33                        	MOV	DL,BYTE [EBX+ESI*1]
   121 00000074 8D 42 D0                        	LEA	EAX,DWORD [-48+EDX]
   122 00000077 3C 09                           	CMP	AL,9
   123 00000079 77 05                           	JA	L19
   124 0000007B 83 F9 08                        	CMP	ECX,8
   125 0000007E 7E EB                           	JLE	L22
   126 00000080                                 L19:
   127 00000080 85 C9                           	TEST	ECX,ECX
   128 00000082 7E 19                           	JLE	L23
   129 00000084 8D 45 E4                        	LEA	EAX,DWORD [-28+EBP]
   130 00000087 BF 00000001                     	MOV	EDI,1
   131 0000008C 50                              	PUSH	EAX
   132 0000008D C6 44 0D E4 00                  	MOV	BYTE [-28+EBP+ECX*1],0
   133 00000092 E8 FFFFFF69                     	CALL	_str_to_int
   134 00000097 8B 55 10                        	MOV	EDX,DWORD [16+EBP]
   135 0000009A 89 02                           	MOV	DWORD [EDX],EAX
   136 0000009C 5A                              	POP	EDX
   137 0000009D                                 L23:
   138 0000009D 80 3C 33 20                     	CMP	BYTE [EBX+ESI*1],32
   139 000000A1 74 44                           	JE	L27
   140 000000A3                                 L39:
   141 000000A3 8A 14 33                        	MOV	DL,BYTE [EBX+ESI*1]
   142 000000A6 31 C9                           	XOR	ECX,ECX
   143 000000A8 8D 42 D0                        	LEA	EAX,DWORD [-48+EDX]
   144 000000AB 3C 09                           	CMP	AL,9
   145 000000AD 77 15                           	JA	L29
   146 000000AF                                 L32:
   147 000000AF 43                              	INC	EBX
   148 000000B0 88 54 0D E4                     	MOV	BYTE [-28+EBP+ECX*1],DL
   149 000000B4 41                              	INC	ECX
   150 000000B5 8A 14 33                        	MOV	DL,BYTE [EBX+ESI*1]
   151 000000B8 8D 42 D0                        	LEA	EAX,DWORD [-48+EDX]
   152 000000BB 3C 09                           	CMP	AL,9
   153 000000BD 77 05                           	JA	L29
   154 000000BF 83 F9 08                        	CMP	ECX,8
   155 000000C2 7E EB                           	JLE	L32
   156 000000C4                                 L29:
   157 000000C4 85 C9                           	TEST	ECX,ECX
   158 000000C6 7E 15                           	JLE	L33
   159 000000C8 8D 45 E4                        	LEA	EAX,DWORD [-28+EBP]
   160 000000CB 47                              	INC	EDI
   161 000000CC 50                              	PUSH	EAX
   162 000000CD C6 44 0D E4 00                  	MOV	BYTE [-28+EBP+ECX*1],0
   163 000000D2 E8 FFFFFF29                     	CALL	_str_to_int
   164 000000D7 8B 55 14                        	MOV	EDX,DWORD [20+EBP]
   165 000000DA 89 02                           	MOV	DWORD [EDX],EAX
   166 000000DC 58                              	POP	EAX
   167 000000DD                                 L33:
   168 000000DD 8D 65 F4                        	LEA	ESP,DWORD [-12+EBP]
   169 000000E0 89 F8                           	MOV	EAX,EDI
   170 000000E2 5B                              	POP	EBX
   171 000000E3 5E                              	POP	ESI
   172 000000E4 5F                              	POP	EDI
   173 000000E5 5D                              	POP	EBP
   174 000000E6 C3                              	RET
   175 000000E7                                 L27:
   176 000000E7 43                              	INC	EBX
   177 000000E8 80 3C 33 20                     	CMP	BYTE [EBX+ESI*1],32
   178 000000EC 74 F9                           	JE	L27
   179 000000EE EB B3                           	JMP	L39
   180 000000F0                                 L17:
   181 000000F0 43                              	INC	EBX
   182 000000F1 80 3C 33 20                     	CMP	BYTE [EBX+ESI*1],32
   183 000000F5 74 F9                           	JE	L17
   184 000000F7 E9 FFFFFF63                     	JMP	L36
   185 000000FC                                 	GLOBAL	_parse_command_words
   186 000000FC                                 _parse_command_words:
   187 000000FC 55                              	PUSH	EBP
   188 000000FD 31 C9                           	XOR	ECX,ECX
   189 000000FF 89 E5                           	MOV	EBP,ESP
   190 00000101 57                              	PUSH	EDI
   191 00000102 56                              	PUSH	ESI
   192 00000103 31 F6                           	XOR	ESI,ESI
   193 00000105 53                              	PUSH	EBX
   194 00000106 8B 7D 0C                        	MOV	EDI,DWORD [12+EBP]
   195 00000109 8B 5D 08                        	MOV	EBX,DWORD [8+EBP]
   196 0000010C 8A 13                           	MOV	DL,BYTE [EBX]
   197 0000010E 80 FA 20                        	CMP	DL,32
   198 00000111 74 11                           	JE	L43
   199 00000113 84 D2                           	TEST	DL,DL
   200 00000115 74 0D                           	JE	L43
   201 00000117                                 L46:
   202 00000117 41                              	INC	ECX
   203 00000118 8A 14 19                        	MOV	DL,BYTE [ECX+EBX*1]
   204 0000011B 80 FA 20                        	CMP	DL,32
   205 0000011E 74 04                           	JE	L43
   206 00000120 84 D2                           	TEST	DL,DL
   207 00000122 75 F3                           	JNE	L46
   208 00000124                                 L43:
   209 00000124 80 3C 19 20                     	CMP	BYTE [ECX+EBX*1],32
   210 00000128 74 7A                           	JE	L50
   211 0000012A                                 L69:
   212 0000012A 8A 14 19                        	MOV	DL,BYTE [ECX+EBX*1]
   213 0000012D 31 C0                           	XOR	EAX,EAX
   214 0000012F 80 FA 20                        	CMP	DL,32
   215 00000132 74 1A                           	JE	L52
   216 00000134 84 D2                           	TEST	DL,DL
   217 00000136 74 16                           	JE	L52
   218 00000138                                 L55:
   219 00000138 41                              	INC	ECX
   220 00000139 88 14 38                        	MOV	BYTE [EAX+EDI*1],DL
   221 0000013C 40                              	INC	EAX
   222 0000013D 8A 14 19                        	MOV	DL,BYTE [ECX+EBX*1]
   223 00000140 80 FA 20                        	CMP	DL,32
   224 00000143 74 09                           	JE	L52
   225 00000145 84 D2                           	TEST	DL,DL
   226 00000147 74 05                           	JE	L52
   227 00000149 83 F8 0E                        	CMP	EAX,14
   228 0000014C 7E EA                           	JLE	L55
   229 0000014E                                 L52:
   230 0000014E 85 C0                           	TEST	EAX,EAX
   231 00000150 7E 09                           	JLE	L56
   232 00000152 C6 04 38 00                     	MOV	BYTE [EAX+EDI*1],0
   233 00000156 BE 00000001                     	MOV	ESI,1
   234 0000015B                                 L56:
   235 0000015B 80 3C 19 20                     	CMP	BYTE [ECX+EBX*1],32
   236 0000015F 74 3A                           	JE	L60
   237 00000161                                 L72:
   238 00000161 8A 14 19                        	MOV	DL,BYTE [ECX+EBX*1]
   239 00000164 31 C0                           	XOR	EAX,EAX
   240 00000166 80 FA 20                        	CMP	DL,32
   241 00000169 74 1D                           	JE	L62
   242 0000016B 84 D2                           	TEST	DL,DL
   243 0000016D 74 19                           	JE	L62
   244 0000016F                                 L65:
   245 0000016F 8B 7D 10                        	MOV	EDI,DWORD [16+EBP]
   246 00000172 41                              	INC	ECX
   247 00000173 88 14 38                        	MOV	BYTE [EAX+EDI*1],DL
   248 00000176 40                              	INC	EAX
   249 00000177 8A 14 19                        	MOV	DL,BYTE [ECX+EBX*1]
   250 0000017A 80 FA 20                        	CMP	DL,32
   251 0000017D 74 09                           	JE	L62
   252 0000017F 84 D2                           	TEST	DL,DL
   253 00000181 74 05                           	JE	L62
   254 00000183 83 F8 0E                        	CMP	EAX,14
   255 00000186 7E E7                           	JLE	L65
   256 00000188                                 L62:
   257 00000188 85 C0                           	TEST	EAX,EAX
   258 0000018A 7E 08                           	JLE	L66
   259 0000018C 8B 55 10                        	MOV	EDX,DWORD [16+EBP]
   260 0000018F 46                              	INC	ESI
   261 00000190 C6 04 10 00                     	MOV	BYTE [EAX+EDX*1],0
   262 00000194                                 L66:
   263 00000194 5B                              	POP	EBX
   264 00000195 89 F0                           	MOV	EAX,ESI
   265 00000197 5E                              	POP	ESI
   266 00000198 5F                              	POP	EDI
   267 00000199 5D                              	POP	EBP
   268 0000019A C3                              	RET
   269 0000019B                                 L60:
   270 0000019B 41                              	INC	ECX
   271 0000019C 80 3C 19 20                     	CMP	BYTE [ECX+EBX*1],32
   272 000001A0 74 F9                           	JE	L60
   273 000001A2 EB BD                           	JMP	L72
   274 000001A4                                 L50:
   275 000001A4 41                              	INC	ECX
   276 000001A5 80 3C 19 20                     	CMP	BYTE [ECX+EBX*1],32
   277 000001A9 74 F9                           	JE	L50
   278 000001AB E9 FFFFFF7A                     	JMP	L69
   279 000001B0                                 	GLOBAL	_parse_word_int
   280 000001B0                                 _parse_word_int:
   281 000001B0 55                              	PUSH	EBP
   282 000001B1 31 C9                           	XOR	ECX,ECX
   283 000001B3 89 E5                           	MOV	EBP,ESP
   284 000001B5 57                              	PUSH	EDI
   285 000001B6 56                              	PUSH	ESI
   286 000001B7 31 FF                           	XOR	EDI,EDI
   287 000001B9 53                              	PUSH	EBX
   288 000001BA 83 EC 10                        	SUB	ESP,16
   289 000001BD 8B 75 08                        	MOV	ESI,DWORD [8+EBP]
   290 000001C0 8B 55 0C                        	MOV	EDX,DWORD [12+EBP]
   291 000001C3 8A 06                           	MOV	AL,BYTE [ESI]
   292 000001C5 3C 20                           	CMP	AL,32
   293 000001C7 74 10                           	JE	L76
   294 000001C9 84 C0                           	TEST	AL,AL
   295 000001CB 74 0C                           	JE	L76
   296 000001CD                                 L79:
   297 000001CD 41                              	INC	ECX
   298 000001CE 8A 04 31                        	MOV	AL,BYTE [ECX+ESI*1]
   299 000001D1 3C 20                           	CMP	AL,32
   300 000001D3 74 04                           	JE	L76
   301 000001D5 84 C0                           	TEST	AL,AL
   302 000001D7 75 F4                           	JNE	L79
   303 000001D9                                 L76:
   304 000001D9 80 3C 31 20                     	CMP	BYTE [ECX+ESI*1],32
   305 000001DD 0F 84 00000082                  	JE	L83
   306 000001E3                                 L102:
   307 000001E3 8A 04 31                        	MOV	AL,BYTE [ECX+ESI*1]
   308 000001E6 31 DB                           	XOR	EBX,EBX
   309 000001E8 3C 20                           	CMP	AL,32
   310 000001EA 74 19                           	JE	L85
   311 000001EC 84 C0                           	TEST	AL,AL
   312 000001EE 74 15                           	JE	L85
   313 000001F0                                 L88:
   314 000001F0 41                              	INC	ECX
   315 000001F1 88 04 13                        	MOV	BYTE [EBX+EDX*1],AL
   316 000001F4 43                              	INC	EBX
   317 000001F5 8A 04 31                        	MOV	AL,BYTE [ECX+ESI*1]
   318 000001F8 3C 20                           	CMP	AL,32
   319 000001FA 74 09                           	JE	L85
   320 000001FC 84 C0                           	TEST	AL,AL
   321 000001FE 74 05                           	JE	L85
   322 00000200 83 FB 0E                        	CMP	EBX,14
   323 00000203 7E EB                           	JLE	L88
   324 00000205                                 L85:
   325 00000205 85 DB                           	TEST	EBX,EBX
   326 00000207 7E 09                           	JLE	L89
   327 00000209 C6 04 13 00                     	MOV	BYTE [EBX+EDX*1],0
   328 0000020D BF 00000001                     	MOV	EDI,1
   329 00000212                                 L89:
   330 00000212 80 3C 31 20                     	CMP	BYTE [ECX+ESI*1],32
   331 00000216 74 44                           	JE	L93
   332 00000218                                 L105:
   333 00000218 8A 14 31                        	MOV	DL,BYTE [ECX+ESI*1]
   334 0000021B 31 DB                           	XOR	EBX,EBX
   335 0000021D 8D 42 D0                        	LEA	EAX,DWORD [-48+EDX]
   336 00000220 3C 09                           	CMP	AL,9
   337 00000222 77 15                           	JA	L95
   338 00000224                                 L98:
   339 00000224 41                              	INC	ECX
   340 00000225 88 54 1D E4                     	MOV	BYTE [-28+EBP+EBX*1],DL
   341 00000229 43                              	INC	EBX
   342 0000022A 8A 14 31                        	MOV	DL,BYTE [ECX+ESI*1]
   343 0000022D 8D 42 D0                        	LEA	EAX,DWORD [-48+EDX]
   344 00000230 3C 09                           	CMP	AL,9
   345 00000232 77 05                           	JA	L95
   346 00000234 83 FB 08                        	CMP	EBX,8
   347 00000237 7E EB                           	JLE	L98
   348 00000239                                 L95:
   349 00000239 85 DB                           	TEST	EBX,EBX
   350 0000023B 7E 15                           	JLE	L99
   351 0000023D 8D 45 E4                        	LEA	EAX,DWORD [-28+EBP]
   352 00000240 47                              	INC	EDI
   353 00000241 50                              	PUSH	EAX
   354 00000242 C6 44 1D E4 00                  	MOV	BYTE [-28+EBP+EBX*1],0
   355 00000247 E8 FFFFFDB4                     	CALL	_str_to_int
   356 0000024C 8B 55 10                        	MOV	EDX,DWORD [16+EBP]
   357 0000024F 89 02                           	MOV	DWORD [EDX],EAX
   358 00000251 59                              	POP	ECX
   359 00000252                                 L99:
   360 00000252 8D 65 F4                        	LEA	ESP,DWORD [-12+EBP]
   361 00000255 89 F8                           	MOV	EAX,EDI
   362 00000257 5B                              	POP	EBX
   363 00000258 5E                              	POP	ESI
   364 00000259 5F                              	POP	EDI
   365 0000025A 5D                              	POP	EBP
   366 0000025B C3                              	RET
   367 0000025C                                 L93:
   368 0000025C 41                              	INC	ECX
   369 0000025D 80 3C 31 20                     	CMP	BYTE [ECX+ESI*1],32
   370 00000261 74 F9                           	JE	L93
   371 00000263 EB B3                           	JMP	L105
   372 00000265                                 L83:
   373 00000265 41                              	INC	ECX
   374 00000266 80 3C 31 20                     	CMP	BYTE [ECX+ESI*1],32
   375 0000026A 74 F9                           	JE	L83
   376 0000026C E9 FFFFFF72                     	JMP	L102
   377                                          [SECTION .data]
   378 00000000                                 	ALIGNB	4
   379 00000000                                 _refresh_counter.0:
   380 00000000 00000000                        	DD	0
   381                                          [SECTION .text]
   382 00000271                                 	GLOBAL	_console_task
   383 00000271                                 _console_task:
   384 00000271 55                              	PUSH	EBP
   385 00000272 89 E5                           	MOV	EBP,ESP
   386 00000274 57                              	PUSH	EDI
   387 00000275 56                              	PUSH	ESI
   388 00000276 53                              	PUSH	EBX
   389 00000277 81 EC 000000A4                  	SUB	ESP,164
   390 0000027D 8B 5D 08                        	MOV	EBX,DWORD [8+EBP]
   391 00000280 E8 [00000000]                   	CALL	_task_now
   392 00000285 68 00002D00                     	PUSH	11520
   393 0000028A 89 C7                           	MOV	EDI,EAX
   394 0000028C 68 003C0000                     	PUSH	3932160
   395 00000291 E8 [00000000]                   	CALL	_memman_alloc_4k
   396 00000296 85 DB                           	TEST	EBX,EBX
   397 00000298 89 5D D4                        	MOV	DWORD [-44+EBP],EBX
   398 0000029B 89 85 FFFFFF50                  	MOV	DWORD [-176+EBP],EAX
   399 000002A1 8D 45 D4                        	LEA	EAX,DWORD [-44+EBP]
   400 000002A4 89 87 000000B8                  	MOV	DWORD [184+EDI],EAX
   401 000002AA 8D 85 FFFFFF54                  	LEA	EAX,DWORD [-172+EBP]
   402 000002B0 89 87 000000CC                  	MOV	DWORD [204+EDI],EAX
   403 000002B6 59                              	POP	ECX
   404 000002B7 C7 45 D8 00000008               	MOV	DWORD [-40+EBP],8
   405 000002BE C7 45 DC 0000001C               	MOV	DWORD [-36+EBP],28
   406 000002C5 C7 45 E0 FFFFFFFF               	MOV	DWORD [-32+EBP],-1
   407 000002CC C7 45 E4 00000000               	MOV	DWORD [-28+EBP],0
   408 000002D3 5E                              	POP	ESI
   409 000002D4 74 21                           	JE	L108
   410 000002D6 E8 [00000000]                   	CALL	_timer_alloc
   411 000002DB 89 C2                           	MOV	EDX,EAX
   412 000002DD 85 C0                           	TEST	EAX,EAX
   413 000002DF 89 45 E4                        	MOV	DWORD [-28+EBP],EAX
   414 000002E2 0F 84 0000039B                  	JE	L109
   415 000002E8 6A 01                           	PUSH	1
   416 000002EA 8D 47 24                        	LEA	EAX,DWORD [36+EDI]
   417 000002ED 50                              	PUSH	EAX
   418 000002EE 52                              	PUSH	EDX
   419 000002EF E8 [00000000]                   	CALL	_timer_init
   420 000002F4 83 C4 0C                        	ADD	ESP,12
   421 000002F7                                 L108:
   422 000002F7 68 00100200                     	PUSH	1049088
   423 000002FC BE 00000007                     	MOV	ESI,7
   424 00000301 FF B5 FFFFFF50                  	PUSH	DWORD [-176+EBP]
   425 00000307 E8 [00000000]                   	CALL	_file_readfat
   426 0000030C 58                              	POP	EAX
   427 0000030D 5A                              	POP	EDX
   428 0000030E 31 C0                           	XOR	EAX,EAX
   429 00000310                                 L115:
   430 00000310 C7 84 05 FFFFFF74 00000000      	MOV	DWORD [-140+EBP+EAX*1],0
   431 0000031B 83 C0 0C                        	ADD	EAX,12
   432 0000031E 4E                              	DEC	ESI
   433 0000031F 79 EF                           	JNS	L115
   434 00000321 8D 85 FFFFFF74                  	LEA	EAX,DWORD [-140+EBP]
   435 00000327 89 87 000000C4                  	MOV	DWORD [196+EDI],EAX
   436 0000032D 8B 85 FFFFFF50                  	MOV	EAX,DWORD [-176+EBP]
   437 00000333 89 87 000000C8                  	MOV	DWORD [200+EDI],EAX
   438 00000339 8D 45 D4                        	LEA	EAX,DWORD [-44+EBP]
   439 0000033C 6A 01                           	PUSH	1
   440 0000033E 6A 3E                           	PUSH	62
   441 00000340 50                              	PUSH	EAX
   442 00000341                                 L151:
   443 00000341 E8 00000349                     	CALL	_cons_putchar
   444 00000346 83 C4 0C                        	ADD	ESP,12
   445 00000349                                 L116:
   446 00000349 8D 5F 24                        	LEA	EBX,DWORD [36+EDI]
   447 0000034C E8 [00000000]                   	CALL	_io_cli
   448 00000351 53                              	PUSH	EBX
   449 00000352 E8 [00000000]                   	CALL	_fifo32_status
   450 00000357 5E                              	POP	ESI
   451 00000358 85 C0                           	TEST	EAX,EAX
   452 0000035A 0F 84 00000312                  	JE	L156
   453 00000360 53                              	PUSH	EBX
   454 00000361 E8 [00000000]                   	CALL	_fifo32_get
   455 00000366 89 C6                           	MOV	ESI,EAX
   456 00000368 E8 [00000000]                   	CALL	_io_sti
   457 0000036D 59                              	POP	ECX
   458 0000036E 83 FE 01                        	CMP	ESI,1
   459 00000371 0F 8E 00000237                  	JLE	L157
   460 00000377                                 L121:
   461 00000377 83 FE 02                        	CMP	ESI,2
   462 0000037A 0F 84 000001BD                  	JE	L158
   463 00000380                                 L128:
   464 00000380 83 FE 03                        	CMP	ESI,3
   465 00000383 0F 84 0000015C                  	JE	L159
   466 00000389                                 L131:
   467 00000389 83 FE 04                        	CMP	ESI,4
   468 0000038C 0F 84 0000013D                  	JE	L160
   469 00000392                                 L134:
   470 00000392 8D 86 FFFFFF00                  	LEA	EAX,DWORD [-256+ESI]
   471 00000398 3D 000000FF                     	CMP	EAX,255
   472 0000039D 77 AA                           	JA	L116
   473 0000039F 81 FE 0000010E                  	CMP	ESI,270
   474 000003A5 0F 84 000000F6                  	JE	L161
   475 000003AB 81 FE 0000011C                  	CMP	ESI,284
   476 000003B1 0F 84 00000081                  	JE	L162
   477 000003B7 31 DB                           	XOR	EBX,EBX
   478 000003B9 83 F8 7F                        	CMP	EAX,127
   479 000003BC 7F 06                           	JG	L145
   480 000003BE 8A 98 [00000000]                	MOV	BL,BYTE [_keytable0+EAX]
   481 000003C4                                 L145:
   482 000003C4 84 DB                           	TEST	BL,BL
   483 000003C6 0F 84 FFFFFF7D                  	JE	L116
   484 000003CC 81 7D D8 0000017F               	CMP	DWORD [-40+EBP],383
   485 000003D3 0F 8F FFFFFF70                  	JG	L116
   486 000003D9 8B 45 E4                        	MOV	EAX,DWORD [-28+EBP]
   487 000003DC 85 C0                           	TEST	EAX,EAX
   488 000003DE 74 07                           	JE	L147
   489 000003E0 50                              	PUSH	EAX
   490 000003E1 E8 [00000000]                   	CALL	_timer_cancel
   491 000003E6 58                              	POP	EAX
   492 000003E7                                 L147:
   493 000003E7 8B 45 D8                        	MOV	EAX,DWORD [-40+EBP]
   494 000003EA BA 00000008                     	MOV	EDX,8
   495 000003EF 89 D1                           	MOV	ECX,EDX
   496 000003F1 6A 01                           	PUSH	1
   497 000003F3 99                              	CDQ
   498 000003F4 F7 F9                           	IDIV	ECX
   499 000003F6 88 9C 05 FFFFFF52               	MOV	BYTE [-174+EBP+EAX*1],BL
   500 000003FD 0F BE C3                        	MOVSX	EAX,BL
   501 00000400 50                              	PUSH	EAX
   502 00000401 8D 45 D4                        	LEA	EAX,DWORD [-44+EBP]
   503 00000404 50                              	PUSH	EAX
   504 00000405 E8 00000285                     	CALL	_cons_putchar
   505 0000040A                                 L155:
   506 0000040A 8B 45 E4                        	MOV	EAX,DWORD [-28+EBP]
   507 0000040D 83 C4 0C                        	ADD	ESP,12
   508 00000410 85 C0                           	TEST	EAX,EAX
   509 00000412 0F 84 FFFFFF31                  	JE	L116
   510 00000418 83 7D E0 00                     	CMP	DWORD [-32+EBP],0
   511 0000041C 0F 88 FFFFFF27                  	JS	L116
   512 00000422 6A 32                           	PUSH	50
   513 00000424 50                              	PUSH	EAX
   514 00000425 C7 45 E0 00000007               	MOV	DWORD [-32+EBP],7
   515 0000042C E8 [00000000]                   	CALL	_timer_settime
   516 00000431 5B                              	POP	EBX
   517 00000432 5E                              	POP	ESI
   518 00000433 E9 FFFFFF11                     	JMP	L116
   519 00000438                                 L162:
   520 00000438 6A 00                           	PUSH	0
   521 0000043A 8D 5D D4                        	LEA	EBX,DWORD [-44+EBP]
   522 0000043D 6A 20                           	PUSH	32
   523 0000043F 53                              	PUSH	EBX
   524 00000440 E8 0000024A                     	CALL	_cons_putchar
   525 00000445 53                              	PUSH	EBX
   526 00000446 8B 45 D8                        	MOV	EAX,DWORD [-40+EBP]
   527 00000449 BA 00000008                     	MOV	EDX,8
   528 0000044E 89 D1                           	MOV	ECX,EDX
   529 00000450 99                              	CDQ
   530 00000451 F7 F9                           	IDIV	ECX
   531 00000453 C6 84 05 FFFFFF52 00            	MOV	BYTE [-174+EBP+EAX*1],0
   532 0000045B E8 000002E0                     	CALL	_cons_newline
   533 00000460 8D 85 FFFFFF54                  	LEA	EAX,DWORD [-172+EBP]
   534 00000466 FF 75 0C                        	PUSH	DWORD [12+EBP]
   535 00000469 FF B5 FFFFFF50                  	PUSH	DWORD [-176+EBP]
   536 0000046F 53                              	PUSH	EBX
   537 00000470 50                              	PUSH	EAX
   538 00000471 E8 000003EC                     	CALL	_cons_runcmd
   539 00000476 83 C4 20                        	ADD	ESP,32
   540 00000479 83 7D D4 00                     	CMP	DWORD [-44+EBP],0
   541 0000047D 75 0E                           	JNE	L142
   542 0000047F FF B5 FFFFFF50                  	PUSH	DWORD [-176+EBP]
   543 00000485 53                              	PUSH	EBX
   544 00000486 E8 00000949                     	CALL	_cmd_exit
   545 0000048B 58                              	POP	EAX
   546 0000048C 5A                              	POP	EDX
   547 0000048D                                 L142:
   548 0000048D 83 7D D4 00                     	CMP	DWORD [-44+EBP],0
   549 00000491 0F 84 FFFFFEB2                  	JE	L116
   550 00000497 6A 01                           	PUSH	1
   551 00000499 6A 3E                           	PUSH	62
   552 0000049B 53                              	PUSH	EBX
   553 0000049C E9 FFFFFEA0                     	JMP	L151
   554 000004A1                                 L161:
   555 000004A1 83 7D D8 10                     	CMP	DWORD [-40+EBP],16
   556 000004A5 0F 8E FFFFFE9E                  	JLE	L116
   557 000004AB 8B 45 E4                        	MOV	EAX,DWORD [-28+EBP]
   558 000004AE 85 C0                           	TEST	EAX,EAX
   559 000004B0 74 07                           	JE	L138
   560 000004B2 50                              	PUSH	EAX
   561 000004B3 E8 [00000000]                   	CALL	_timer_cancel
   562 000004B8 59                              	POP	ECX
   563 000004B9                                 L138:
   564 000004B9 6A 00                           	PUSH	0
   565 000004BB 8D 45 D4                        	LEA	EAX,DWORD [-44+EBP]
   566 000004BE 6A 20                           	PUSH	32
   567 000004C0 50                              	PUSH	EAX
   568 000004C1 E8 000001C9                     	CALL	_cons_putchar
   569 000004C6 83 6D D8 08                     	SUB	DWORD [-40+EBP],8
   570 000004CA E9 FFFFFF3B                     	JMP	L155
   571 000004CF                                 L160:
   572 000004CF FF B5 FFFFFF50                  	PUSH	DWORD [-176+EBP]
   573 000004D5 8D 45 D4                        	LEA	EAX,DWORD [-44+EBP]
   574 000004D8 50                              	PUSH	EAX
   575 000004D9 E8 000008F6                     	CALL	_cmd_exit
   576 000004DE 5B                              	POP	EBX
   577 000004DF 58                              	POP	EAX
   578 000004E0 E9 FFFFFEAD                     	JMP	L134
   579 000004E5                                 L159:
   580 000004E5 8B 45 E4                        	MOV	EAX,DWORD [-28+EBP]
   581 000004E8 85 C0                           	TEST	EAX,EAX
   582 000004EA 74 07                           	JE	L132
   583 000004EC 50                              	PUSH	EAX
   584 000004ED E8 [00000000]                   	CALL	_timer_cancel
   585 000004F2 58                              	POP	EAX
   586 000004F3                                 L132:
   587 000004F3 8B 5D D4                        	MOV	EBX,DWORD [-44+EBP]
   588 000004F6 85 DB                           	TEST	EBX,EBX
   589 000004F8 74 37                           	JE	L133
   590 000004FA 8B 4D DC                        	MOV	ECX,DWORD [-36+EBP]
   591 000004FD 8B 55 D8                        	MOV	EDX,DWORD [-40+EBP]
   592 00000500 8D 41 0F                        	LEA	EAX,DWORD [15+ECX]
   593 00000503 50                              	PUSH	EAX
   594 00000504 8D 42 07                        	LEA	EAX,DWORD [7+EDX]
   595 00000507 50                              	PUSH	EAX
   596 00000508 51                              	PUSH	ECX
   597 00000509 52                              	PUSH	EDX
   598 0000050A 6A 00                           	PUSH	0
   599 0000050C FF 73 04                        	PUSH	DWORD [4+EBX]
   600 0000050F FF 33                           	PUSH	DWORD [EBX]
   601 00000511 E8 [00000000]                   	CALL	_boxfill8
   602 00000516 8B 55 D8                        	MOV	EDX,DWORD [-40+EBP]
   603 00000519 8B 4D DC                        	MOV	ECX,DWORD [-36+EBP]
   604 0000051C 8D 41 10                        	LEA	EAX,DWORD [16+ECX]
   605 0000051F 50                              	PUSH	EAX
   606 00000520 8D 42 08                        	LEA	EAX,DWORD [8+EDX]
   607 00000523 50                              	PUSH	EAX
   608 00000524 51                              	PUSH	ECX
   609 00000525 52                              	PUSH	EDX
   610 00000526 FF 75 D4                        	PUSH	DWORD [-44+EBP]
   611 00000529 E8 [00000000]                   	CALL	_sheet_refresh
   612 0000052E 83 C4 30                        	ADD	ESP,48
   613 00000531                                 L133:
   614 00000531 C7 45 E0 FFFFFFFF               	MOV	DWORD [-32+EBP],-1
   615 00000538 E9 FFFFFE4C                     	JMP	L131
   616 0000053D                                 L158:
   617 0000053D 8B 55 E4                        	MOV	EDX,DWORD [-28+EBP]
   618 00000540 C7 45 E0 00000007               	MOV	DWORD [-32+EBP],7
   619 00000547 85 D2                           	TEST	EDX,EDX
   620 00000549 74 19                           	JE	L129
   621 0000054B 6A 01                           	PUSH	1
   622 0000054D 8D 47 24                        	LEA	EAX,DWORD [36+EDI]
   623 00000550 50                              	PUSH	EAX
   624 00000551 52                              	PUSH	EDX
   625 00000552 E8 [00000000]                   	CALL	_timer_init
   626 00000557 6A 32                           	PUSH	50
   627 00000559 FF 75 E4                        	PUSH	DWORD [-28+EBP]
   628 0000055C E8 [00000000]                   	CALL	_timer_settime
   629 00000561 83 C4 14                        	ADD	ESP,20
   630 00000564                                 L129:
   631 00000564 8B 5D D4                        	MOV	EBX,DWORD [-44+EBP]
   632 00000567 85 DB                           	TEST	EBX,EBX
   633 00000569 0F 84 FFFFFE11                  	JE	L128
   634 0000056F 8B 4D DC                        	MOV	ECX,DWORD [-36+EBP]
   635 00000572 8B 55 D8                        	MOV	EDX,DWORD [-40+EBP]
   636 00000575 8D 41 0F                        	LEA	EAX,DWORD [15+ECX]
   637 00000578 50                              	PUSH	EAX
   638 00000579 8D 42 07                        	LEA	EAX,DWORD [7+EDX]
   639 0000057C 50                              	PUSH	EAX
   640 0000057D 51                              	PUSH	ECX
   641 0000057E 52                              	PUSH	EDX
   642 0000057F 0F B6 45 E0                     	MOVZX	EAX,BYTE [-32+EBP]
   643 00000583 50                              	PUSH	EAX
   644 00000584 FF 73 04                        	PUSH	DWORD [4+EBX]
   645 00000587 FF 33                           	PUSH	DWORD [EBX]
   646 00000589 E8 [00000000]                   	CALL	_boxfill8
   647 0000058E 8B 55 D8                        	MOV	EDX,DWORD [-40+EBP]
   648 00000591 8B 4D DC                        	MOV	ECX,DWORD [-36+EBP]
   649 00000594 8D 41 10                        	LEA	EAX,DWORD [16+ECX]
   650 00000597 50                              	PUSH	EAX
   651 00000598 8D 42 08                        	LEA	EAX,DWORD [8+EDX]
   652 0000059B 50                              	PUSH	EAX
   653 0000059C 51                              	PUSH	ECX
   654 0000059D 52                              	PUSH	EDX
   655 0000059E FF 75 D4                        	PUSH	DWORD [-44+EBP]
   656 000005A1 E8 [00000000]                   	CALL	_sheet_refresh
   657 000005A6 83 C4 30                        	ADD	ESP,48
   658 000005A9 E9 FFFFFDD2                     	JMP	L128
   659 000005AE                                 L157:
   660 000005AE 83 7D D4 00                     	CMP	DWORD [-44+EBP],0
   661 000005B2 0F 84 FFFFFDBF                  	JE	L121
   662 000005B8 8B 45 E4                        	MOV	EAX,DWORD [-28+EBP]
   663 000005BB 85 C0                           	TEST	EAX,EAX
   664 000005BD 0F 84 FFFFFDB4                  	JE	L121
   665 000005C3 83 7D E0 00                     	CMP	DWORD [-32+EBP],0
   666 000005C7 0F 88 FFFFFDAA                  	JS	L121
   667 000005CD 85 F6                           	TEST	ESI,ESI
   668 000005CF 0F 84 00000086                  	JE	L123
   669 000005D5 C7 45 E0 00000007               	MOV	DWORD [-32+EBP],7
   670 000005DC 83 3D [00000000] 00             	CMP	DWORD [_refresh_counter.0],0
   671 000005E3 75 0C                           	JNE	L125
   672 000005E5 6A 00                           	PUSH	0
   673 000005E7                                 L153:
   674 000005E7 53                              	PUSH	EBX
   675 000005E8 50                              	PUSH	EAX
   676 000005E9 E8 [00000000]                   	CALL	_timer_init
   677 000005EE 83 C4 0C                        	ADD	ESP,12
   678 000005F1                                 L125:
   679 000005F1 8B 4D DC                        	MOV	ECX,DWORD [-36+EBP]
   680 000005F4 8B 55 D8                        	MOV	EDX,DWORD [-40+EBP]
   681 000005F7 8D 41 0F                        	LEA	EAX,DWORD [15+ECX]
   682 000005FA 50                              	PUSH	EAX
   683 000005FB 8D 42 07                        	LEA	EAX,DWORD [7+EDX]
   684 000005FE 50                              	PUSH	EAX
   685 000005FF 51                              	PUSH	ECX
   686 00000600 52                              	PUSH	EDX
   687 00000601 0F B6 45 E0                     	MOVZX	EAX,BYTE [-32+EBP]
   688 00000605 50                              	PUSH	EAX
   689 00000606 8B 45 D4                        	MOV	EAX,DWORD [-44+EBP]
   690 00000609 FF 70 04                        	PUSH	DWORD [4+EAX]
   691 0000060C FF 30                           	PUSH	DWORD [EAX]
   692 0000060E E8 [00000000]                   	CALL	_boxfill8
   693 00000613 83 C4 1C                        	ADD	ESP,28
   694 00000616 A1 [00000000]                   	MOV	EAX,DWORD [_refresh_counter.0]
   695 0000061B 40                              	INC	EAX
   696 0000061C A3 [00000000]                   	MOV	DWORD [_refresh_counter.0],EAX
   697 00000621 85 C0                           	TEST	EAX,EAX
   698 00000623 7E 25                           	JLE	L127
   699 00000625 8B 4D DC                        	MOV	ECX,DWORD [-36+EBP]
   700 00000628 8B 55 D8                        	MOV	EDX,DWORD [-40+EBP]
   701 0000062B 8D 41 10                        	LEA	EAX,DWORD [16+ECX]
   702 0000062E 50                              	PUSH	EAX
   703 0000062F 8D 42 08                        	LEA	EAX,DWORD [8+EDX]
   704 00000632 50                              	PUSH	EAX
   705 00000633 51                              	PUSH	ECX
   706 00000634 52                              	PUSH	EDX
   707 00000635 FF 75 D4                        	PUSH	DWORD [-44+EBP]
   708 00000638 E8 [00000000]                   	CALL	_sheet_refresh
   709 0000063D 83 C4 14                        	ADD	ESP,20
   710 00000640 C7 05 [00000000] 00000000       	MOV	DWORD [_refresh_counter.0],0
   711 0000064A                                 L127:
   712 0000064A 6A 32                           	PUSH	50
   713 0000064C FF 75 E4                        	PUSH	DWORD [-28+EBP]
   714 0000064F E8 [00000000]                   	CALL	_timer_settime
   715 00000654 58                              	POP	EAX
   716 00000655 5A                              	POP	EDX
   717 00000656 E9 FFFFFD1C                     	JMP	L121
   718 0000065B                                 L123:
   719 0000065B C7 45 E0 00000000               	MOV	DWORD [-32+EBP],0
   720 00000662 83 3D [00000000] 00             	CMP	DWORD [_refresh_counter.0],0
   721 00000669 75 86                           	JNE	L125
   722 0000066B 6A 01                           	PUSH	1
   723 0000066D E9 FFFFFF75                     	JMP	L153
   724 00000672                                 L156:
   725 00000672 57                              	PUSH	EDI
   726 00000673 E8 [00000000]                   	CALL	_task_sleep
   727 00000678 E8 [00000000]                   	CALL	_io_sti
   728 0000067D 5B                              	POP	EBX
   729 0000067E E9 FFFFFCC6                     	JMP	L116
   730 00000683                                 L109:
   731 00000683 C7 45 E0 FFFFFFFF               	MOV	DWORD [-32+EBP],-1
   732 0000068A E9 FFFFFC68                     	JMP	L108
   733                                          [SECTION .data]
   734 00000004                                 LC0:
   735 00000004 20 00                           	DB	" ",0x00
   736                                          [SECTION .text]
   737 0000068F                                 	GLOBAL	_cons_putchar
   738 0000068F                                 _cons_putchar:
   739 0000068F 55                              	PUSH	EBP
   740 00000690 89 E5                           	MOV	EBP,ESP
   741 00000692 53                              	PUSH	EBX
   742 00000693 50                              	PUSH	EAX
   743 00000694 8B 45 0C                        	MOV	EAX,DWORD [12+EBP]
   744 00000697 8A 55 10                        	MOV	DL,BYTE [16+EBP]
   745 0000069A 8B 5D 08                        	MOV	EBX,DWORD [8+EBP]
   746 0000069D 88 55 F9                        	MOV	BYTE [-7+EBP],DL
   747 000006A0 88 45 FA                        	MOV	BYTE [-6+EBP],AL
   748 000006A3 3C 09                           	CMP	AL,9
   749 000006A5 C6 45 FB 00                     	MOV	BYTE [-5+EBP],0
   750 000006A9 74 4D                           	JE	L165
   751 000006AB 3C 0A                           	CMP	AL,10
   752 000006AD 74 25                           	JE	L179
   753 000006AF 3C 0D                           	CMP	AL,13
   754 000006B1 74 1C                           	JE	L163
   755 000006B3 8B 13                           	MOV	EDX,DWORD [EBX]
   756 000006B5 85 D2                           	TEST	EDX,EDX
   757 000006B7 75 24                           	JNE	L180
   758 000006B9                                 L176:
   759 000006B9 80 7D F9 00                     	CMP	BYTE [-7+EBP],0
   760 000006BD 74 10                           	JE	L163
   761 000006BF 8B 43 04                        	MOV	EAX,DWORD [4+EBX]
   762 000006C2 83 C0 08                        	ADD	EAX,8
   763 000006C5 89 43 04                        	MOV	DWORD [4+EBX],EAX
   764 000006C8 3D 00000188                     	CMP	EAX,392
   765 000006CD 74 05                           	JE	L179
   766 000006CF                                 L163:
   767 000006CF 8B 5D FC                        	MOV	EBX,DWORD [-4+EBP]
   768 000006D2 C9                              	LEAVE
   769 000006D3 C3                              	RET
   770 000006D4                                 L179:
   771 000006D4 53                              	PUSH	EBX
   772 000006D5 E8 00000066                     	CALL	_cons_newline
   773 000006DA 58                              	POP	EAX
   774 000006DB EB F2                           	JMP	L163
   775 000006DD                                 L180:
   776 000006DD 6A 01                           	PUSH	1
   777 000006DF 8D 45 FA                        	LEA	EAX,DWORD [-6+EBP]
   778 000006E2 50                              	PUSH	EAX
   779 000006E3 6A 00                           	PUSH	0
   780 000006E5 6A 07                           	PUSH	7
   781 000006E7 FF 73 08                        	PUSH	DWORD [8+EBX]
   782 000006EA FF 73 04                        	PUSH	DWORD [4+EBX]
   783 000006ED 52                              	PUSH	EDX
   784 000006EE E8 [00000000]                   	CALL	_putfonts8_asc_sht
   785 000006F3 83 C4 1C                        	ADD	ESP,28
   786 000006F6 EB C1                           	JMP	L176
   787 000006F8                                 L165:
   788 000006F8 8B 03                           	MOV	EAX,DWORD [EBX]
   789 000006FA 85 C0                           	TEST	EAX,EAX
   790 000006FC 75 26                           	JNE	L181
   791 000006FE                                 L168:
   792 000006FE 8B 43 04                        	MOV	EAX,DWORD [4+EBX]
   793 00000701 83 C0 08                        	ADD	EAX,8
   794 00000704 89 43 04                        	MOV	DWORD [4+EBX],EAX
   795 00000707 3D 00000188                     	CMP	EAX,392
   796 0000070C 74 0D                           	JE	L182
   797 0000070E                                 L169:
   798 0000070E 8B 43 04                        	MOV	EAX,DWORD [4+EBX]
   799 00000711 83 E8 08                        	SUB	EAX,8
   800 00000714 83 E0 1F                        	AND	EAX,31
   801 00000717 75 DF                           	JNE	L165
   802 00000719 EB B4                           	JMP	L163
   803 0000071B                                 L182:
   804 0000071B 53                              	PUSH	EBX
   805 0000071C E8 0000001F                     	CALL	_cons_newline
   806 00000721 58                              	POP	EAX
   807 00000722 EB EA                           	JMP	L169
   808 00000724                                 L181:
   809 00000724 6A 01                           	PUSH	1
   810 00000726 68 [00000004]                   	PUSH	LC0
   811 0000072B 6A 00                           	PUSH	0
   812 0000072D 6A 07                           	PUSH	7
   813 0000072F FF 73 08                        	PUSH	DWORD [8+EBX]
   814 00000732 FF 73 04                        	PUSH	DWORD [4+EBX]
   815 00000735 50                              	PUSH	EAX
   816 00000736 E8 [00000000]                   	CALL	_putfonts8_asc_sht
   817 0000073B 83 C4 1C                        	ADD	ESP,28
   818 0000073E EB BE                           	JMP	L168
   819 00000740                                 	GLOBAL	_cons_newline
   820 00000740                                 _cons_newline:
   821 00000740 55                              	PUSH	EBP
   822 00000741 89 E5                           	MOV	EBP,ESP
   823 00000743 57                              	PUSH	EDI
   824 00000744 56                              	PUSH	ESI
   825 00000745 53                              	PUSH	EBX
   826 00000746 50                              	PUSH	EAX
   827 00000747 8B 45 08                        	MOV	EAX,DWORD [8+EBP]
   828 0000074A 8B 55 08                        	MOV	EDX,DWORD [8+EBP]
   829 0000074D 8B 00                           	MOV	EAX,DWORD [EAX]
   830 0000074F 89 45 F0                        	MOV	DWORD [-16+EBP],EAX
   831 00000752 8B 42 08                        	MOV	EAX,DWORD [8+EDX]
   832 00000755 3D 000000C9                     	CMP	EAX,201
   833 0000075A 7F 18                           	JG	L184
   834 0000075C 83 C0 10                        	ADD	EAX,16
   835 0000075F 89 42 08                        	MOV	DWORD [8+EDX],EAX
   836 00000762                                 L185:
   837 00000762 8B 45 08                        	MOV	EAX,DWORD [8+EBP]
   838 00000765 C7 40 04 00000008               	MOV	DWORD [4+EAX],8
   839 0000076C 8D 65 F4                        	LEA	ESP,DWORD [-12+EBP]
   840 0000076F 5B                              	POP	EBX
   841 00000770 5E                              	POP	ESI
   842 00000771 5F                              	POP	EDI
   843 00000772 5D                              	POP	EBP
   844 00000773 C3                              	RET
   845 00000774                                 L184:
   846 00000774 83 7D F0 00                     	CMP	DWORD [-16+EBP],0
   847 00000778 74 E8                           	JE	L185
   848 0000077A BF 0000001C                     	MOV	EDI,28
   849 0000077F                                 L196:
   850 0000077F BE 00000008                     	MOV	ESI,8
   851 00000784                                 L195:
   852 00000784 8B 45 F0                        	MOV	EAX,DWORD [-16+EBP]
   853 00000787 89 FA                           	MOV	EDX,EDI
   854 00000789 8B 48 04                        	MOV	ECX,DWORD [4+EAX]
   855 0000078C 8B 18                           	MOV	EBX,DWORD [EAX]
   856 0000078E 8D 47 10                        	LEA	EAX,DWORD [16+EDI]
   857 00000791 0F AF C1                        	IMUL	EAX,ECX
   858 00000794 0F AF D1                        	IMUL	EDX,ECX
   859 00000797 8D 04 30                        	LEA	EAX,DWORD [EAX+ESI*1]
   860 0000079A 8D 14 32                        	LEA	EDX,DWORD [EDX+ESI*1]
   861 0000079D 46                              	INC	ESI
   862 0000079E 8A 04 18                        	MOV	AL,BYTE [EAX+EBX*1]
   863 000007A1 81 FE 00000187                  	CMP	ESI,391
   864 000007A7 88 04 1A                        	MOV	BYTE [EDX+EBX*1],AL
   865 000007AA 7E D8                           	JLE	L195
   866 000007AC 47                              	INC	EDI
   867 000007AD 81 FF 000000C9                  	CMP	EDI,201
   868 000007B3 7E CA                           	JLE	L196
   869 000007B5 BF 000000CA                     	MOV	EDI,202
   870 000007BA                                 L206:
   871 000007BA BE 00000008                     	MOV	ESI,8
   872 000007BF                                 L205:
   873 000007BF 8B 55 F0                        	MOV	EDX,DWORD [-16+EBP]
   874 000007C2 89 F8                           	MOV	EAX,EDI
   875 000007C4 89 D1                           	MOV	ECX,EDX
   876 000007C6 0F AF 42 04                     	IMUL	EAX,DWORD [4+EDX]
   877 000007CA 8B 12                           	MOV	EDX,DWORD [EDX]
   878 000007CC 8D 04 30                        	LEA	EAX,DWORD [EAX+ESI*1]
   879 000007CF 46                              	INC	ESI
   880 000007D0 81 FE 00000187                  	CMP	ESI,391
   881 000007D6 C6 04 10 00                     	MOV	BYTE [EAX+EDX*1],0
   882 000007DA 7E E3                           	JLE	L205
   883 000007DC 47                              	INC	EDI
   884 000007DD 81 FF 000000D9                  	CMP	EDI,217
   885 000007E3 7E D5                           	JLE	L206
   886 000007E5 68 000000DA                     	PUSH	218
   887 000007EA 68 00000188                     	PUSH	392
   888 000007EF 6A 1C                           	PUSH	28
   889 000007F1 6A 08                           	PUSH	8
   890 000007F3 51                              	PUSH	ECX
   891 000007F4 E8 [00000000]                   	CALL	_sheet_refresh
   892 000007F9 83 C4 14                        	ADD	ESP,20
   893 000007FC E9 FFFFFF61                     	JMP	L185
   894 00000801                                 	GLOBAL	_cons_putstr0
   895 00000801                                 _cons_putstr0:
   896 00000801 55                              	PUSH	EBP
   897 00000802 89 E5                           	MOV	EBP,ESP
   898 00000804 56                              	PUSH	ESI
   899 00000805 53                              	PUSH	EBX
   900 00000806 8B 5D 0C                        	MOV	EBX,DWORD [12+EBP]
   901 00000809 8B 75 08                        	MOV	ESI,DWORD [8+EBP]
   902 0000080C 80 3B 00                        	CMP	BYTE [EBX],0
   903 0000080F 75 07                           	JNE	L220
   904 00000811                                 L222:
   905 00000811 8D 65 F8                        	LEA	ESP,DWORD [-8+EBP]
   906 00000814 5B                              	POP	EBX
   907 00000815 5E                              	POP	ESI
   908 00000816 5D                              	POP	EBP
   909 00000817 C3                              	RET
   910 00000818                                 L220:
   911 00000818 6A 01                           	PUSH	1
   912 0000081A 0F BE 03                        	MOVSX	EAX,BYTE [EBX]
   913 0000081D 50                              	PUSH	EAX
   914 0000081E 43                              	INC	EBX
   915 0000081F 56                              	PUSH	ESI
   916 00000820 E8 FFFFFE6A                     	CALL	_cons_putchar
   917 00000825 83 C4 0C                        	ADD	ESP,12
   918 00000828 80 3B 00                        	CMP	BYTE [EBX],0
   919 0000082B 75 EB                           	JNE	L220
   920 0000082D EB E2                           	JMP	L222
   921 0000082F                                 	GLOBAL	_cons_putstr1
   922 0000082F                                 _cons_putstr1:
   923 0000082F 55                              	PUSH	EBP
   924 00000830 89 E5                           	MOV	EBP,ESP
   925 00000832 57                              	PUSH	EDI
   926 00000833 56                              	PUSH	ESI
   927 00000834 53                              	PUSH	EBX
   928 00000835 8B 75 10                        	MOV	ESI,DWORD [16+EBP]
   929 00000838 31 DB                           	XOR	EBX,EBX
   930 0000083A 8B 7D 0C                        	MOV	EDI,DWORD [12+EBP]
   931 0000083D 39 F3                           	CMP	EBX,ESI
   932 0000083F 7C 08                           	JL	L228
   933 00000841                                 L230:
   934 00000841 8D 65 F4                        	LEA	ESP,DWORD [-12+EBP]
   935 00000844 5B                              	POP	EBX
   936 00000845 5E                              	POP	ESI
   937 00000846 5F                              	POP	EDI
   938 00000847 5D                              	POP	EBP
   939 00000848 C3                              	RET
   940 00000849                                 L228:
   941 00000849 6A 01                           	PUSH	1
   942 0000084B 0F BE 04 3B                     	MOVSX	EAX,BYTE [EBX+EDI*1]
   943 0000084F 50                              	PUSH	EAX
   944 00000850 43                              	INC	EBX
   945 00000851 FF 75 08                        	PUSH	DWORD [8+EBP]
   946 00000854 E8 FFFFFE36                     	CALL	_cons_putchar
   947 00000859 83 C4 0C                        	ADD	ESP,12
   948 0000085C 39 F3                           	CMP	EBX,ESI
   949 0000085E 7C E9                           	JL	L228
   950 00000860 EB DF                           	JMP	L230
   951                                          [SECTION .data]
   952 00000006                                 LC1:
   953 00000006 6D 65 6D 00                     	DB	"mem",0x00
   954 0000000A                                 LC2:
   955 0000000A 6D 65 6D 74 65 73 74 00         	DB	"memtest",0x00
   956 00000012                                 LC3:
   957 00000012 66 69 72 73 74 66 69 74 00      	DB	"firstfit",0x00
   958 0000001B                                 LC4:
   959 0000001B 62 65 73 74 66 69 74 00         	DB	"bestfit",0x00
   960 00000023                                 LC5:
   961 00000023 62 75 64 64 79 00               	DB	"buddy",0x00
   962 00000029                                 LC6:
   963 00000029 63 6C 73 00                     	DB	"cls",0x00
   964 0000002D                                 LC7:
   965 0000002D 64 69 72 00                     	DB	"dir",0x00
   966 00000031                                 LC8:
   967 00000031 70 73 00                        	DB	"ps",0x00
   968 00000034                                 LC9:
   969 00000034 73 63 68 65 64 00               	DB	"sched",0x00
   970 0000003A                                 LC10:
   971 0000003A 69 70 63 00                     	DB	"ipc",0x00
   972 0000003E                                 LC11:
   973 0000003E 70 72 69 6F 72 69 74 79 20 00   	DB	"priority ",0x00
   974 00000048                                 LC12:
   975 00000048 73 65 6D 20 00                  	DB	"sem ",0x00
   976 0000004D                                 LC13:
   977 0000004D 6D 73 67 20 00                  	DB	"msg ",0x00
   978 00000052                                 LC14:
   979 00000052 65 78 69 74 00                  	DB	"exit",0x00
   980 00000057                                 LC15:
   981 00000057 73 74 61 72 74 20 00            	DB	"start ",0x00
   982 0000005E                                 LC16:
   983 0000005E 6E 63 73 74 20 00               	DB	"ncst ",0x00
   984 00000064                                 LC17:
   985 00000064 42 61 64 20 63 6F 6D 6D 61 6E   	DB	"Bad command.",0x0A,0x0A,0x00
       0000006E 64 2E 0A 0A 00 
   986                                          [SECTION .text]
   987 00000862                                 	GLOBAL	_cons_runcmd
   988 00000862                                 _cons_runcmd:
   989 00000862 55                              	PUSH	EBP
   990 00000863 89 E5                           	MOV	EBP,ESP
   991 00000865 57                              	PUSH	EDI
   992 00000866 56                              	PUSH	ESI
   993 00000867 BF [00000006]                   	MOV	EDI,LC1
   994 0000086C 53                              	PUSH	EBX
   995 0000086D 83 EC 0C                        	SUB	ESP,12
   996 00000870 8B 45 08                        	MOV	EAX,DWORD [8+EBP]
   997 00000873 8B 4D 10                        	MOV	ECX,DWORD [16+EBP]
   998 00000876 89 45 E8                        	MOV	DWORD [-24+EBP],EAX
   999 00000879 89 4D F0                        	MOV	DWORD [-16+EBP],ECX
  1000 0000087C 8B 45 14                        	MOV	EAX,DWORD [20+EBP]
  1001 0000087F 8B 75 E8                        	MOV	ESI,DWORD [-24+EBP]
  1002 00000882 89 45 EC                        	MOV	DWORD [-20+EBP],EAX
  1003 00000885 8B 5D 0C                        	MOV	EBX,DWORD [12+EBP]
  1004 00000888 B8 00000004                     	MOV	EAX,4
  1005 0000088D FC                              	CLD
  1006 0000088E 89 C1                           	MOV	ECX,EAX
  1007 00000890 F3                              	REPE
  1008 00000891 A6                              	CMPSB
  1009 00000892 75 09                           	JNE	L232
  1010 00000894 83 3B 00                        	CMP	DWORD [EBX],0
  1011 00000897 0F 85 00000311                  	JNE	L272
  1012 0000089D                                 L232:
  1013 0000089D B8 00000008                     	MOV	EAX,8
  1014 000008A2 8B 75 E8                        	MOV	ESI,DWORD [-24+EBP]
  1015 000008A5 FC                              	CLD
  1016 000008A6 BF [0000000A]                   	MOV	EDI,LC2
  1017 000008AB 89 C1                           	MOV	ECX,EAX
  1018 000008AD F3                              	REPE
  1019 000008AE A6                              	CMPSB
  1020 000008AF 75 09                           	JNE	L234
  1021 000008B1 83 3B 00                        	CMP	DWORD [EBX],0
  1022 000008B4 0F 85 000002DF                  	JNE	L273
  1023 000008BA                                 L234:
  1024 000008BA B8 00000009                     	MOV	EAX,9
  1025 000008BF 8B 75 E8                        	MOV	ESI,DWORD [-24+EBP]
  1026 000008C2 FC                              	CLD
  1027 000008C3 BF [00000012]                   	MOV	EDI,LC3
  1028 000008C8 89 C1                           	MOV	ECX,EAX
  1029 000008CA F3                              	REPE
  1030 000008CB A6                              	CMPSB
  1031 000008CC 75 09                           	JNE	L236
  1032 000008CE 83 3B 00                        	CMP	DWORD [EBX],0
  1033 000008D1 0F 85 000002B9                  	JNE	L274
  1034 000008D7                                 L236:
  1035 000008D7 B8 00000008                     	MOV	EAX,8
  1036 000008DC 8B 75 E8                        	MOV	ESI,DWORD [-24+EBP]
  1037 000008DF FC                              	CLD
  1038 000008E0 BF [0000001B]                   	MOV	EDI,LC4
  1039 000008E5 89 C1                           	MOV	ECX,EAX
  1040 000008E7 F3                              	REPE
  1041 000008E8 A6                              	CMPSB
  1042 000008E9 75 09                           	JNE	L238
  1043 000008EB 83 3B 00                        	CMP	DWORD [EBX],0
  1044 000008EE 0F 85 00000293                  	JNE	L275
  1045 000008F4                                 L238:
  1046 000008F4 B8 00000006                     	MOV	EAX,6
  1047 000008F9 8B 75 E8                        	MOV	ESI,DWORD [-24+EBP]
  1048 000008FC FC                              	CLD
  1049 000008FD BF [00000023]                   	MOV	EDI,LC5
  1050 00000902 89 C1                           	MOV	ECX,EAX
  1051 00000904 F3                              	REPE
  1052 00000905 A6                              	CMPSB
  1053 00000906 75 09                           	JNE	L240
  1054 00000908 83 3B 00                        	CMP	DWORD [EBX],0
  1055 0000090B 0F 85 00000260                  	JNE	L276
  1056 00000911                                 L240:
  1057 00000911 B8 00000004                     	MOV	EAX,4
  1058 00000916 8B 75 E8                        	MOV	ESI,DWORD [-24+EBP]
  1059 00000919 FC                              	CLD
  1060 0000091A BF [00000029]                   	MOV	EDI,LC6
  1061 0000091F 89 C1                           	MOV	ECX,EAX
  1062 00000921 F3                              	REPE
  1063 00000922 A6                              	CMPSB
  1064 00000923 75 09                           	JNE	L242
  1065 00000925 83 3B 00                        	CMP	DWORD [EBX],0
  1066 00000928 0F 85 00000234                  	JNE	L277
  1067 0000092E                                 L242:
  1068 0000092E B8 00000004                     	MOV	EAX,4
  1069 00000933 8B 75 E8                        	MOV	ESI,DWORD [-24+EBP]
  1070 00000936 FC                              	CLD
  1071 00000937 BF [0000002D]                   	MOV	EDI,LC7
  1072 0000093C 89 C1                           	MOV	ECX,EAX
  1073 0000093E F3                              	REPE
  1074 0000093F A6                              	CMPSB
  1075 00000940 75 09                           	JNE	L244
  1076 00000942 83 3B 00                        	CMP	DWORD [EBX],0
  1077 00000945 0F 85 00000208                  	JNE	L278
  1078 0000094B                                 L244:
  1079 0000094B B8 00000003                     	MOV	EAX,3
  1080 00000950 8B 75 E8                        	MOV	ESI,DWORD [-24+EBP]
  1081 00000953 FC                              	CLD
  1082 00000954 BF [00000031]                   	MOV	EDI,LC8
  1083 00000959 89 C1                           	MOV	ECX,EAX
  1084 0000095B F3                              	REPE
  1085 0000095C A6                              	CMPSB
  1086 0000095D 75 09                           	JNE	L246
  1087 0000095F 83 3B 00                        	CMP	DWORD [EBX],0
  1088 00000962 0F 85 000001DC                  	JNE	L279
  1089 00000968                                 L246:
  1090 00000968 B8 00000006                     	MOV	EAX,6
  1091 0000096D 8B 75 E8                        	MOV	ESI,DWORD [-24+EBP]
  1092 00000970 FC                              	CLD
  1093 00000971 BF [00000034]                   	MOV	EDI,LC9
  1094 00000976 89 C1                           	MOV	ECX,EAX
  1095 00000978 F3                              	REPE
  1096 00000979 A6                              	CMPSB
  1097 0000097A 75 09                           	JNE	L248
  1098 0000097C 83 3B 00                        	CMP	DWORD [EBX],0
  1099 0000097F 0F 85 000001B0                  	JNE	L280
  1100 00000985                                 L248:
  1101 00000985 B8 00000004                     	MOV	EAX,4
  1102 0000098A 8B 75 E8                        	MOV	ESI,DWORD [-24+EBP]
  1103 0000098D FC                              	CLD
  1104 0000098E BF [0000003A]                   	MOV	EDI,LC10
  1105 00000993 89 C1                           	MOV	ECX,EAX
  1106 00000995 F3                              	REPE
  1107 00000996 A6                              	CMPSB
  1108 00000997 75 09                           	JNE	L250
  1109 00000999 83 3B 00                        	CMP	DWORD [EBX],0
  1110 0000099C 0F 85 00000184                  	JNE	L281
  1111 000009A2                                 L250:
  1112 000009A2 B8 00000009                     	MOV	EAX,9
  1113 000009A7 8B 75 E8                        	MOV	ESI,DWORD [-24+EBP]
  1114 000009AA FC                              	CLD
  1115 000009AB BF [0000003E]                   	MOV	EDI,LC11
  1116 000009B0 89 C1                           	MOV	ECX,EAX
  1117 000009B2 F3                              	REPE
  1118 000009B3 A6                              	CMPSB
  1119 000009B4 0F 84 00000157                  	JE	L282
  1120 000009BA B8 00000004                     	MOV	EAX,4
  1121 000009BF 8B 75 E8                        	MOV	ESI,DWORD [-24+EBP]
  1122 000009C2 FC                              	CLD
  1123 000009C3 BF [00000048]                   	MOV	EDI,LC12
  1124 000009C8 89 C1                           	MOV	ECX,EAX
  1125 000009CA F3                              	REPE
  1126 000009CB A6                              	CMPSB
  1127 000009CC 0F 84 0000012A                  	JE	L283
  1128 000009D2 B8 00000004                     	MOV	EAX,4
  1129 000009D7 8B 75 E8                        	MOV	ESI,DWORD [-24+EBP]
  1130 000009DA FC                              	CLD
  1131 000009DB BF [0000004D]                   	MOV	EDI,LC13
  1132 000009E0 89 C1                           	MOV	ECX,EAX
  1133 000009E2 F3                              	REPE
  1134 000009E3 A6                              	CMPSB
  1135 000009E4 0F 84 000000FD                  	JE	L284
  1136 000009EA B8 00000005                     	MOV	EAX,5
  1137 000009EF 8B 75 E8                        	MOV	ESI,DWORD [-24+EBP]
  1138 000009F2 FC                              	CLD
  1139 000009F3 BF [00000052]                   	MOV	EDI,LC14
  1140 000009F8 89 C1                           	MOV	ECX,EAX
  1141 000009FA F3                              	REPE
  1142 000009FB A6                              	CMPSB
  1143 000009FC 75 54                           	JNE	L258
  1144 000009FE 8B 33                           	MOV	ESI,DWORD [EBX]
  1145 00000A00 85 F6                           	TEST	ESI,ESI
  1146 00000A02 74 36                           	JE	L259
  1147 00000A04 8B 4B 08                        	MOV	ECX,DWORD [8+EBX]
  1148 00000A07 8D 41 0F                        	LEA	EAX,DWORD [15+ECX]
  1149 00000A0A 50                              	PUSH	EAX
  1150 00000A0B 8B 53 04                        	MOV	EDX,DWORD [4+EBX]
  1151 00000A0E 8D 42 07                        	LEA	EAX,DWORD [7+EDX]
  1152 00000A11 50                              	PUSH	EAX
  1153 00000A12 51                              	PUSH	ECX
  1154 00000A13 52                              	PUSH	EDX
  1155 00000A14 6A 00                           	PUSH	0
  1156 00000A16 FF 76 04                        	PUSH	DWORD [4+ESI]
  1157 00000A19 FF 36                           	PUSH	DWORD [ESI]
  1158 00000A1B E8 [00000000]                   	CALL	_boxfill8
  1159 00000A20 8B 4B 08                        	MOV	ECX,DWORD [8+EBX]
  1160 00000A23 8D 41 10                        	LEA	EAX,DWORD [16+ECX]
  1161 00000A26 50                              	PUSH	EAX
  1162 00000A27 8B 53 04                        	MOV	EDX,DWORD [4+EBX]
  1163 00000A2A 8D 42 08                        	LEA	EAX,DWORD [8+EDX]
  1164 00000A2D 50                              	PUSH	EAX
  1165 00000A2E 51                              	PUSH	ECX
  1166 00000A2F 52                              	PUSH	EDX
  1167 00000A30 FF 33                           	PUSH	DWORD [EBX]
  1168 00000A32 E8 [00000000]                   	CALL	_sheet_refresh
  1169 00000A37 83 C4 30                        	ADD	ESP,48
  1170 00000A3A                                 L259:
  1171 00000A3A 8B 03                           	MOV	EAX,DWORD [EBX]
  1172 00000A3C 85 C0                           	TEST	EAX,EAX
  1173 00000A3E 74 04                           	JE	L261
  1174 00000A40 83 48 1C 40                     	OR	DWORD [28+EAX],64
  1175 00000A44                                 L261:
  1176 00000A44 E8 [00000000]                   	CALL	_task_now
  1177 00000A49 50                              	PUSH	EAX
  1178 00000A4A E8 [00000000]                   	CALL	_task_sleep
  1179 00000A4F 58                              	POP	EAX
  1180 00000A50 EB F2                           	JMP	L261
  1181 00000A52                                 L258:
  1182 00000A52 B8 00000006                     	MOV	EAX,6
  1183 00000A57 8B 75 E8                        	MOV	ESI,DWORD [-24+EBP]
  1184 00000A5A FC                              	CLD
  1185 00000A5B BF [00000057]                   	MOV	EDI,LC15
  1186 00000A60 89 C1                           	MOV	ECX,EAX
  1187 00000A62 F3                              	REPE
  1188 00000A63 A6                              	CMPSB
  1189 00000A64 74 66                           	JE	L285
  1190 00000A66 B8 00000005                     	MOV	EAX,5
  1191 00000A6B 8B 75 E8                        	MOV	ESI,DWORD [-24+EBP]
  1192 00000A6E FC                              	CLD
  1193 00000A6F BF [0000005E]                   	MOV	EDI,LC16
  1194 00000A74 89 C1                           	MOV	ECX,EAX
  1195 00000A76 F3                              	REPE
  1196 00000A77 A6                              	CMPSB
  1197 00000A78 74 37                           	JE	L286
  1198 00000A7A 8B 45 E8                        	MOV	EAX,DWORD [-24+EBP]
  1199 00000A7D 80 38 00                        	CMP	BYTE [EAX],0
  1200 00000A80 75 08                           	JNE	L287
  1201 00000A82                                 L231:
  1202 00000A82 8D 65 F4                        	LEA	ESP,DWORD [-12+EBP]
  1203 00000A85 5B                              	POP	EBX
  1204 00000A86 5E                              	POP	ESI
  1205 00000A87 5F                              	POP	EDI
  1206 00000A88 5D                              	POP	EBP
  1207 00000A89 C3                              	RET
  1208 00000A8A                                 L287:
  1209 00000A8A 50                              	PUSH	EAX
  1210 00000A8B FF 75 F0                        	PUSH	DWORD [-16+EBP]
  1211 00000A8E 53                              	PUSH	EBX
  1212 00000A8F E8 000004B5                     	CALL	_cmd_app
  1213 00000A94 83 C4 0C                        	ADD	ESP,12
  1214 00000A97 85 C0                           	TEST	EAX,EAX
  1215 00000A99 75 E7                           	JNE	L231
  1216 00000A9B C7 45 0C [00000064]             	MOV	DWORD [12+EBP],LC17
  1217 00000AA2 89 5D 08                        	MOV	DWORD [8+EBP],EBX
  1218 00000AA5 8D 65 F4                        	LEA	ESP,DWORD [-12+EBP]
  1219 00000AA8 5B                              	POP	EBX
  1220 00000AA9 5E                              	POP	ESI
  1221 00000AAA 5F                              	POP	EDI
  1222 00000AAB 5D                              	POP	EBP
  1223 00000AAC E9 FFFFFD50                     	JMP	_cons_putstr0
  1224 00000AB1                                 L286:
  1225 00000AB1 8B 45 EC                        	MOV	EAX,DWORD [-20+EBP]
  1226 00000AB4 8B 4D E8                        	MOV	ECX,DWORD [-24+EBP]
  1227 00000AB7 89 45 10                        	MOV	DWORD [16+EBP],EAX
  1228 00000ABA 89 4D 0C                        	MOV	DWORD [12+EBP],ECX
  1229 00000ABD 89 5D 08                        	MOV	DWORD [8+EBP],EBX
  1230 00000AC0 8D 65 F4                        	LEA	ESP,DWORD [-12+EBP]
  1231 00000AC3 5B                              	POP	EBX
  1232 00000AC4 5E                              	POP	ESI
  1233 00000AC5 5F                              	POP	EDI
  1234 00000AC6 5D                              	POP	EBP
  1235 00000AC7 E9 00000419                     	JMP	_cmd_ncst
  1236 00000ACC                                 L285:
  1237 00000ACC 8B 45 EC                        	MOV	EAX,DWORD [-20+EBP]
  1238 00000ACF 8B 4D E8                        	MOV	ECX,DWORD [-24+EBP]
  1239 00000AD2 89 45 10                        	MOV	DWORD [16+EBP],EAX
  1240 00000AD5 89 4D 0C                        	MOV	DWORD [12+EBP],ECX
  1241 00000AD8 89 5D 08                        	MOV	DWORD [8+EBP],EBX
  1242 00000ADB 8D 65 F4                        	LEA	ESP,DWORD [-12+EBP]
  1243 00000ADE 5B                              	POP	EBX
  1244 00000ADF 5E                              	POP	ESI
  1245 00000AE0 5F                              	POP	EDI
  1246 00000AE1 5D                              	POP	EBP
  1247 00000AE2 E9 00000374                     	JMP	_cmd_start
  1248 00000AE7                                 L284:
  1249 00000AE7 8B 45 E8                        	MOV	EAX,DWORD [-24+EBP]
  1250 00000AEA 89 5D 08                        	MOV	DWORD [8+EBP],EBX
  1251 00000AED 89 45 0C                        	MOV	DWORD [12+EBP],EAX
  1252 00000AF0 8D 65 F4                        	LEA	ESP,DWORD [-12+EBP]
  1253 00000AF3 5B                              	POP	EBX
  1254 00000AF4 5E                              	POP	ESI
  1255 00000AF5 5F                              	POP	EDI
  1256 00000AF6 5D                              	POP	EBP
  1257 00000AF7 E9 0000163E                     	JMP	_cmd_message
  1258 00000AFC                                 L283:
  1259 00000AFC 8B 45 E8                        	MOV	EAX,DWORD [-24+EBP]
  1260 00000AFF 89 5D 08                        	MOV	DWORD [8+EBP],EBX
  1261 00000B02 89 45 0C                        	MOV	DWORD [12+EBP],EAX
  1262 00000B05 8D 65 F4                        	LEA	ESP,DWORD [-12+EBP]
  1263 00000B08 5B                              	POP	EBX
  1264 00000B09 5E                              	POP	ESI
  1265 00000B0A 5F                              	POP	EDI
  1266 00000B0B 5D                              	POP	EBP
  1267 00000B0C E9 000013DB                     	JMP	_cmd_semaphore
  1268 00000B11                                 L282:
  1269 00000B11 8B 45 E8                        	MOV	EAX,DWORD [-24+EBP]
  1270 00000B14 89 5D 08                        	MOV	DWORD [8+EBP],EBX
  1271 00000B17 89 45 0C                        	MOV	DWORD [12+EBP],EAX
  1272 00000B1A 8D 65 F4                        	LEA	ESP,DWORD [-12+EBP]
  1273 00000B1D 5B                              	POP	EBX
  1274 00000B1E 5E                              	POP	ESI
  1275 00000B1F 5F                              	POP	EDI
  1276 00000B20 5D                              	POP	EBP
  1277 00000B21 E9 000012E7                     	JMP	_cmd_set_priority
  1278 00000B26                                 L281:
  1279 00000B26 89 5D 08                        	MOV	DWORD [8+EBP],EBX
  1280 00000B29 8D 65 F4                        	LEA	ESP,DWORD [-12+EBP]
  1281 00000B2C 5B                              	POP	EBX
  1282 00000B2D 5E                              	POP	ESI
  1283 00000B2E 5F                              	POP	EDI
  1284 00000B2F 5D                              	POP	EBP
  1285 00000B30 E9 00001142                     	JMP	_cmd_ipc_info
  1286 00000B35                                 L280:
  1287 00000B35 89 5D 08                        	MOV	DWORD [8+EBP],EBX
  1288 00000B38 8D 65 F4                        	LEA	ESP,DWORD [-12+EBP]
  1289 00000B3B 5B                              	POP	EBX
  1290 00000B3C 5E                              	POP	ESI
  1291 00000B3D 5F                              	POP	EDI
  1292 00000B3E 5D                              	POP	EBP
  1293 00000B3F E9 0000108D                     	JMP	_cmd_sched_info
  1294 00000B44                                 L279:
  1295 00000B44 89 5D 08                        	MOV	DWORD [8+EBP],EBX
  1296 00000B47 8D 65 F4                        	LEA	ESP,DWORD [-12+EBP]
  1297 00000B4A 5B                              	POP	EBX
  1298 00000B4B 5E                              	POP	ESI
  1299 00000B4C 5F                              	POP	EDI
  1300 00000B4D 5D                              	POP	EBP
  1301 00000B4E E9 00000FB8                     	JMP	_cmd_ps
  1302 00000B53                                 L278:
  1303 00000B53 89 5D 08                        	MOV	DWORD [8+EBP],EBX
  1304 00000B56 8D 65 F4                        	LEA	ESP,DWORD [-12+EBP]
  1305 00000B59 5B                              	POP	EBX
  1306 00000B5A 5E                              	POP	ESI
  1307 00000B5B 5F                              	POP	EDI
  1308 00000B5C 5D                              	POP	EBP
  1309 00000B5D E9 000001DC                     	JMP	_cmd_dir
  1310 00000B62                                 L277:
  1311 00000B62 89 5D 08                        	MOV	DWORD [8+EBP],EBX
  1312 00000B65 8D 65 F4                        	LEA	ESP,DWORD [-12+EBP]
  1313 00000B68 5B                              	POP	EBX
  1314 00000B69 5E                              	POP	ESI
  1315 00000B6A 5F                              	POP	EDI
  1316 00000B6B 5D                              	POP	EBP
  1317 00000B6C E9 00000174                     	JMP	_cmd_cls
  1318 00000B71                                 L276:
  1319 00000B71 C7 45 0C 00000002               	MOV	DWORD [12+EBP],2
  1320 00000B78                                 L271:
  1321 00000B78 89 5D 08                        	MOV	DWORD [8+EBP],EBX
  1322 00000B7B 8D 65 F4                        	LEA	ESP,DWORD [-12+EBP]
  1323 00000B7E 5B                              	POP	EBX
  1324 00000B7F 5E                              	POP	ESI
  1325 00000B80 5F                              	POP	EDI
  1326 00000B81 5D                              	POP	EBP
  1327 00000B82 E9 00000D3A                     	JMP	_cmd_set_strategy
  1328 00000B87                                 L275:
  1329 00000B87 C7 45 0C 00000001               	MOV	DWORD [12+EBP],1
  1330 00000B8E EB E8                           	JMP	L271
  1331 00000B90                                 L274:
  1332 00000B90 C7 45 0C 00000000               	MOV	DWORD [12+EBP],0
  1333 00000B97 EB DF                           	JMP	L271
  1334 00000B99                                 L273:
  1335 00000B99 8B 45 EC                        	MOV	EAX,DWORD [-20+EBP]
  1336 00000B9C 89 5D 08                        	MOV	DWORD [8+EBP],EBX
  1337 00000B9F 89 45 0C                        	MOV	DWORD [12+EBP],EAX
  1338 00000BA2 8D 65 F4                        	LEA	ESP,DWORD [-12+EBP]
  1339 00000BA5 5B                              	POP	EBX
  1340 00000BA6 5E                              	POP	ESI
  1341 00000BA7 5F                              	POP	EDI
  1342 00000BA8 5D                              	POP	EBP
  1343 00000BA9 E9 00000D6A                     	JMP	_cmd_memtest
  1344 00000BAE                                 L272:
  1345 00000BAE 8B 45 EC                        	MOV	EAX,DWORD [-20+EBP]
  1346 00000BB1 89 5D 08                        	MOV	DWORD [8+EBP],EBX
  1347 00000BB4 89 45 0C                        	MOV	DWORD [12+EBP],EAX
  1348 00000BB7 8D 65 F4                        	LEA	ESP,DWORD [-12+EBP]
  1349 00000BBA 5B                              	POP	EBX
  1350 00000BBB 5E                              	POP	ESI
  1351 00000BBC 5F                              	POP	EDI
  1352 00000BBD 5D                              	POP	EBP
  1353 00000BBE EB 00                           	JMP	_cmd_mem
  1354                                          [SECTION .data]
  1355 00000073                                 LC18:
  1356 00000073 3D 3D 3D 20 45 6E 68 61 6E 63   	DB	"=== Enhanced Memory Management ===",0x0A,0x00
       0000007D 65 64 20 4D 65 6D 6F 72 79 20 
       00000087 4D 61 6E 61 67 65 6D 65 6E 74 
       00000091 20 3D 3D 3D 0A 00 
  1357 00000097                                 LC19:
  1358 00000097 54 6F 74 61 6C 20 4D 65 6D 6F   	DB	"Total Memory: %dMB",0x0A,0x00
       000000A1 72 79 3A 20 25 64 4D 42 0A 00 
  1359 000000AB                                 LC20:
  1360 000000AB 46 72 65 65 20 4D 65 6D 6F 72   	DB	"Free Memory:  %dKB",0x0A,0x00
       000000B5 79 3A 20 20 25 64 4B 42 0A 00 
  1361 000000BF                                 LC21:
  1362 000000BF 55 73 65 64 20 4D 65 6D 6F 72   	DB	"Used Memory:  %dKB",0x0A,0x00
       000000C9 79 3A 20 20 25 64 4B 42 0A 00 
  1363 000000D3                                 LC22:
  1364 000000D3 46 72 65 65 20 42 6C 6F 63 6B   	DB	"Free Blocks:  %d (max: %d)",0x0A,0x00
       000000DD 73 3A 20 20 25 64 20 28 6D 61 
       000000E7 78 3A 20 25 64 29 0A 00 
  1365 000000EF                                 LC23:
  1366 000000EF 4C 6F 73 74 20 42 6C 6F 63 6B   	DB	"Lost Blocks:  %d (size: %dKB)",0x0A,0x00
       000000F9 73 3A 20 20 25 64 20 28 73 69 
       00000103 7A 65 3A 20 25 64 4B 42 29 0A 
       0000010D 00 
  1367 0000010E                                 LC25:
  1368 0000010E 42 65 73 74 20 46 69 74 00      	DB	"Best Fit",0x00
  1369 00000117                                 LC24:
  1370 00000117 46 69 72 73 74 20 46 69 74 00   	DB	"First Fit",0x00
  1371 00000121                                 LC26:
  1372 00000121 42 75 64 64 79 20 53 79 73 74   	DB	"Buddy System",0x00
       0000012B 65 6D 00 
  1373 0000012E                                 LC27:
  1374 0000012E 55 6E 6B 6E 6F 77 6E 00         	DB	"Unknown",0x00
  1375 00000136                                 LC28:
  1376 00000136 53 74 72 61 74 65 67 79 3A 20   	DB	"Strategy:     %s",0x0A,0x0A,0x00
       00000140 20 20 20 20 25 73 0A 0A 00 
  1377                                          [SECTION .text]
  1378 00000BC0                                 	GLOBAL	_cmd_mem
  1379 00000BC0                                 _cmd_mem:
  1380 00000BC0 55                              	PUSH	EBP
  1381 00000BC1 89 E5                           	MOV	EBP,ESP
  1382 00000BC3 57                              	PUSH	EDI
  1383 00000BC4 56                              	PUSH	ESI
  1384 00000BC5 53                              	PUSH	EBX
  1385 00000BC6 8D 5D A4                        	LEA	EBX,DWORD [-92+EBP]
  1386 00000BC9 83 EC 54                        	SUB	ESP,84
  1387 00000BCC 8B 75 0C                        	MOV	ESI,DWORD [12+EBP]
  1388 00000BCF 68 003C0000                     	PUSH	3932160
  1389 00000BD4 E8 [00000000]                   	CALL	_memman_total
  1390 00000BD9 68 [00000073]                   	PUSH	LC18
  1391 00000BDE 53                              	PUSH	EBX
  1392 00000BDF 89 C7                           	MOV	EDI,EAX
  1393 00000BE1 E8 [00000000]                   	CALL	_sprintf
  1394 00000BE6 53                              	PUSH	EBX
  1395 00000BE7 FF 75 08                        	PUSH	DWORD [8+EBP]
  1396 00000BEA E8 FFFFFC12                     	CALL	_cons_putstr0
  1397 00000BEF 89 F0                           	MOV	EAX,ESI
  1398 00000BF1 BA 00100000                     	MOV	EDX,1048576
  1399 00000BF6 29 FE                           	SUB	ESI,EDI
  1400 00000BF8 C1 EE 0A                        	SHR	ESI,10
  1401 00000BFB 89 D1                           	MOV	ECX,EDX
  1402 00000BFD 99                              	CDQ
  1403 00000BFE F7 F9                           	IDIV	ECX
  1404 00000C00 50                              	PUSH	EAX
  1405 00000C01 89 45 A0                        	MOV	DWORD [-96+EBP],EAX
  1406 00000C04 68 [00000097]                   	PUSH	LC19
  1407 00000C09 53                              	PUSH	EBX
  1408 00000C0A E8 [00000000]                   	CALL	_sprintf
  1409 00000C0F 83 C4 20                        	ADD	ESP,32
  1410 00000C12 53                              	PUSH	EBX
  1411 00000C13 FF 75 08                        	PUSH	DWORD [8+EBP]
  1412 00000C16 E8 FFFFFBE6                     	CALL	_cons_putstr0
  1413 00000C1B 89 F8                           	MOV	EAX,EDI
  1414 00000C1D C1 E8 0A                        	SHR	EAX,10
  1415 00000C20 50                              	PUSH	EAX
  1416 00000C21 68 [000000AB]                   	PUSH	LC20
  1417 00000C26 53                              	PUSH	EBX
  1418 00000C27 E8 [00000000]                   	CALL	_sprintf
  1419 00000C2C 53                              	PUSH	EBX
  1420 00000C2D FF 75 08                        	PUSH	DWORD [8+EBP]
  1421 00000C30 E8 FFFFFBCC                     	CALL	_cons_putstr0
  1422 00000C35 56                              	PUSH	ESI
  1423 00000C36 68 [000000BF]                   	PUSH	LC21
  1424 00000C3B 53                              	PUSH	EBX
  1425 00000C3C E8 [00000000]                   	CALL	_sprintf
  1426 00000C41 83 C4 28                        	ADD	ESP,40
  1427 00000C44 53                              	PUSH	EBX
  1428 00000C45 FF 75 08                        	PUSH	DWORD [8+EBP]
  1429 00000C48 E8 FFFFFBB4                     	CALL	_cons_putstr0
  1430 00000C4D FF 35 003C0004                  	PUSH	DWORD [3932164]
  1431 00000C53 FF 35 003C0000                  	PUSH	DWORD [3932160]
  1432 00000C59 68 [000000D3]                   	PUSH	LC22
  1433 00000C5E 53                              	PUSH	EBX
  1434 00000C5F E8 [00000000]                   	CALL	_sprintf
  1435 00000C64 53                              	PUSH	EBX
  1436 00000C65 FF 75 08                        	PUSH	DWORD [8+EBP]
  1437 00000C68 E8 FFFFFB94                     	CALL	_cons_putstr0
  1438 00000C6D BA 00000400                     	MOV	EDX,1024
  1439 00000C72 A1 003C0008                     	MOV	EAX,DWORD [3932168]
  1440 00000C77 89 D1                           	MOV	ECX,EDX
  1441 00000C79 99                              	CDQ
  1442 00000C7A F7 F9                           	IDIV	ECX
  1443 00000C7C 83 C4 20                        	ADD	ESP,32
  1444 00000C7F 50                              	PUSH	EAX
  1445 00000C80 FF 35 003C000C                  	PUSH	DWORD [3932172]
  1446 00000C86 68 [000000EF]                   	PUSH	LC23
  1447 00000C8B 53                              	PUSH	EBX
  1448 00000C8C E8 [00000000]                   	CALL	_sprintf
  1449 00000C91 53                              	PUSH	EBX
  1450 00000C92 FF 75 08                        	PUSH	DWORD [8+EBP]
  1451 00000C95 E8 FFFFFB67                     	CALL	_cons_putstr0
  1452 00000C9A BA [0000010E]                   	MOV	EDX,LC25
  1453 00000C9F A1 003E8028                     	MOV	EAX,DWORD [4096040]
  1454 00000CA4 83 C4 18                        	ADD	ESP,24
  1455 00000CA7 83 F8 01                        	CMP	EAX,1
  1456 00000CAA 74 19                           	JE	L289
  1457 00000CAC BA [00000117]                   	MOV	EDX,LC24
  1458 00000CB1 83 F8 01                        	CMP	EAX,1
  1459 00000CB4 72 0F                           	JB	L289
  1460 00000CB6 BA [00000121]                   	MOV	EDX,LC26
  1461 00000CBB 83 F8 02                        	CMP	EAX,2
  1462 00000CBE 74 05                           	JE	L289
  1463 00000CC0 BA [0000012E]                   	MOV	EDX,LC27
  1464 00000CC5                                 L289:
  1465 00000CC5 52                              	PUSH	EDX
  1466 00000CC6 8D 5D A4                        	LEA	EBX,DWORD [-92+EBP]
  1467 00000CC9 68 [00000136]                   	PUSH	LC28
  1468 00000CCE 53                              	PUSH	EBX
  1469 00000CCF E8 [00000000]                   	CALL	_sprintf
  1470 00000CD4 53                              	PUSH	EBX
  1471 00000CD5 FF 75 08                        	PUSH	DWORD [8+EBP]
  1472 00000CD8 E8 FFFFFB24                     	CALL	_cons_putstr0
  1473 00000CDD 8D 65 F4                        	LEA	ESP,DWORD [-12+EBP]
  1474 00000CE0 5B                              	POP	EBX
  1475 00000CE1 5E                              	POP	ESI
  1476 00000CE2 5F                              	POP	EDI
  1477 00000CE3 5D                              	POP	EBP
  1478 00000CE4 C3                              	RET
  1479 00000CE5                                 	GLOBAL	_cmd_cls
  1480 00000CE5                                 _cmd_cls:
  1481 00000CE5 55                              	PUSH	EBP
  1482 00000CE6 89 E5                           	MOV	EBP,ESP
  1483 00000CE8 57                              	PUSH	EDI
  1484 00000CE9 56                              	PUSH	ESI
  1485 00000CEA BE 0000001C                     	MOV	ESI,28
  1486 00000CEF 8B 7D 08                        	MOV	EDI,DWORD [8+EBP]
  1487 00000CF2 53                              	PUSH	EBX
  1488 00000CF3 8B 1F                           	MOV	EBX,DWORD [EDI]
  1489 00000CF5                                 L305:
  1490 00000CF5 B9 00000008                     	MOV	ECX,8
  1491 00000CFA                                 L304:
  1492 00000CFA 89 F0                           	MOV	EAX,ESI
  1493 00000CFC 8B 13                           	MOV	EDX,DWORD [EBX]
  1494 00000CFE 0F AF 43 04                     	IMUL	EAX,DWORD [4+EBX]
  1495 00000D02 8D 04 08                        	LEA	EAX,DWORD [EAX+ECX*1]
  1496 00000D05 41                              	INC	ECX
  1497 00000D06 81 F9 00000187                  	CMP	ECX,391
  1498 00000D0C C6 04 10 00                     	MOV	BYTE [EAX+EDX*1],0
  1499 00000D10 7E E8                           	JLE	L304
  1500 00000D12 46                              	INC	ESI
  1501 00000D13 81 FE 000000D9                  	CMP	ESI,217
  1502 00000D19 7E DA                           	JLE	L305
  1503 00000D1B 68 000000DA                     	PUSH	218
  1504 00000D20 68 00000188                     	PUSH	392
  1505 00000D25 6A 1C                           	PUSH	28
  1506 00000D27 6A 08                           	PUSH	8
  1507 00000D29 53                              	PUSH	EBX
  1508 00000D2A E8 [00000000]                   	CALL	_sheet_refresh
  1509 00000D2F C7 47 08 0000001C               	MOV	DWORD [8+EDI],28
  1510 00000D36 8D 65 F4                        	LEA	ESP,DWORD [-12+EBP]
  1511 00000D39 5B                              	POP	EBX
  1512 00000D3A 5E                              	POP	ESI
  1513 00000D3B 5F                              	POP	EDI
  1514 00000D3C 5D                              	POP	EBP
  1515 00000D3D C3                              	RET
  1516                                          [SECTION .data]
  1517 00000149                                 LC29:
  1518 00000149 66 69 6C 65 6E 61 6D 65 2E 65   	DB	"filename.ext   %7d",0x0A,0x00
       00000153 78 74 20 20 20 25 37 64 0A 00 
  1519                                          [SECTION .text]
  1520 00000D3E                                 	GLOBAL	_cmd_dir
  1521 00000D3E                                 _cmd_dir:
  1522 00000D3E 55                              	PUSH	EBP
  1523 00000D3F 89 E5                           	MOV	EBP,ESP
  1524 00000D41 57                              	PUSH	EDI
  1525 00000D42 56                              	PUSH	ESI
  1526 00000D43 31 F6                           	XOR	ESI,ESI
  1527 00000D45 53                              	PUSH	EBX
  1528 00000D46 31 DB                           	XOR	EBX,EBX
  1529 00000D48 83 EC 20                        	SUB	ESP,32
  1530 00000D4B 8B 7D 08                        	MOV	EDI,DWORD [8+EBP]
  1531 00000D4E                                 L323:
  1532 00000D4E 8A 83 00102600                  	MOV	AL,BYTE [1058304+EBX]
  1533 00000D54 84 C0                           	TEST	AL,AL
  1534 00000D56 74 19                           	JE	L312
  1535 00000D58 3C E5                           	CMP	AL,-27
  1536 00000D5A 74 09                           	JE	L313
  1537 00000D5C F6 83 0010260B 18               	TEST	BYTE [1058315+EBX],24
  1538 00000D63 74 1A                           	JE	L327
  1539 00000D65                                 L313:
  1540 00000D65 46                              	INC	ESI
  1541 00000D66 83 C3 20                        	ADD	EBX,32
  1542 00000D69 81 FE 000000DF                  	CMP	ESI,223
  1543 00000D6F 7E DD                           	JLE	L323
  1544 00000D71                                 L312:
  1545 00000D71 57                              	PUSH	EDI
  1546 00000D72 E8 FFFFF9C9                     	CALL	_cons_newline
  1547 00000D77 8D 65 F4                        	LEA	ESP,DWORD [-12+EBP]
  1548 00000D7A 5B                              	POP	EBX
  1549 00000D7B 5E                              	POP	ESI
  1550 00000D7C 5F                              	POP	EDI
  1551 00000D7D 5D                              	POP	EBP
  1552 00000D7E C3                              	RET
  1553 00000D7F                                 L327:
  1554 00000D7F FF B3 0010261C                  	PUSH	DWORD [1058332+EBX]
  1555 00000D85 68 [00000149]                   	PUSH	LC29
  1556 00000D8A 8D 45 D4                        	LEA	EAX,DWORD [-44+EBP]
  1557 00000D8D 50                              	PUSH	EAX
  1558 00000D8E E8 [00000000]                   	CALL	_sprintf
  1559 00000D93 8D 93 00102600                  	LEA	EDX,DWORD [1058304+EBX]
  1560 00000D99 31 C9                           	XOR	ECX,ECX
  1561 00000D9B 83 C4 0C                        	ADD	ESP,12
  1562 00000D9E                                 L322:
  1563 00000D9E 8A 02                           	MOV	AL,BYTE [EDX]
  1564 00000DA0 42                              	INC	EDX
  1565 00000DA1 88 44 0D D4                     	MOV	BYTE [-44+EBP+ECX*1],AL
  1566 00000DA5 41                              	INC	ECX
  1567 00000DA6 83 F9 07                        	CMP	ECX,7
  1568 00000DA9 7E F3                           	JLE	L322
  1569 00000DAB 8A 83 00102608                  	MOV	AL,BYTE [1058312+EBX]
  1570 00000DB1 88 45 DD                        	MOV	BYTE [-35+EBP],AL
  1571 00000DB4 8A 83 00102609                  	MOV	AL,BYTE [1058313+EBX]
  1572 00000DBA 88 45 DE                        	MOV	BYTE [-34+EBP],AL
  1573 00000DBD 8A 83 0010260A                  	MOV	AL,BYTE [1058314+EBX]
  1574 00000DC3 88 45 DF                        	MOV	BYTE [-33+EBP],AL
  1575 00000DC6 8D 45 D4                        	LEA	EAX,DWORD [-44+EBP]
  1576 00000DC9 50                              	PUSH	EAX
  1577 00000DCA 57                              	PUSH	EDI
  1578 00000DCB E8 FFFFFA31                     	CALL	_cons_putstr0
  1579 00000DD0 58                              	POP	EAX
  1580 00000DD1 5A                              	POP	EDX
  1581 00000DD2 EB 91                           	JMP	L313
  1582 00000DD4                                 	GLOBAL	_cmd_exit
  1583 00000DD4                                 _cmd_exit:
  1584 00000DD4 55                              	PUSH	EBP
  1585 00000DD5 89 E5                           	MOV	EBP,ESP
  1586 00000DD7 57                              	PUSH	EDI
  1587 00000DD8 56                              	PUSH	ESI
  1588 00000DD9 53                              	PUSH	EBX
  1589 00000DDA 8B 75 08                        	MOV	ESI,DWORD [8+EBP]
  1590 00000DDD E8 [00000000]                   	CALL	_task_now
  1591 00000DE2 89 C7                           	MOV	EDI,EAX
  1592 00000DE4 83 3E 00                        	CMP	DWORD [ESI],0
  1593 00000DE7 74 12                           	JE	L329
  1594 00000DE9 FF 76 10                        	PUSH	DWORD [16+ESI]
  1595 00000DEC E8 [00000000]                   	CALL	_timer_cancel
  1596 00000DF1 FF 76 10                        	PUSH	DWORD [16+ESI]
  1597 00000DF4 E8 [00000000]                   	CALL	_timer_free
  1598 00000DF9 5B                              	POP	EBX
  1599 00000DFA 58                              	POP	EAX
  1600 00000DFB                                 L329:
  1601 00000DFB 68 00002D00                     	PUSH	11520
  1602 00000E00 FF 75 0C                        	PUSH	DWORD [12+EBP]
  1603 00000E03 68 003C0000                     	PUSH	3932160
  1604 00000E08 E8 [00000000]                   	CALL	_memman_free_4k
  1605 00000E0D 8B 1E                           	MOV	EBX,DWORD [ESI]
  1606 00000E0F 83 C4 0C                        	ADD	ESP,12
  1607 00000E12 85 DB                           	TEST	EBX,EBX
  1608 00000E14 74 3C                           	JE	L331
  1609 00000E16 8B 4E 08                        	MOV	ECX,DWORD [8+ESI]
  1610 00000E19 8D 41 0F                        	LEA	EAX,DWORD [15+ECX]
  1611 00000E1C 50                              	PUSH	EAX
  1612 00000E1D 8B 56 04                        	MOV	EDX,DWORD [4+ESI]
  1613 00000E20 8D 42 07                        	LEA	EAX,DWORD [7+EDX]
  1614 00000E23 50                              	PUSH	EAX
  1615 00000E24 51                              	PUSH	ECX
  1616 00000E25 52                              	PUSH	EDX
  1617 00000E26 6A 00                           	PUSH	0
  1618 00000E28 FF 73 04                        	PUSH	DWORD [4+EBX]
  1619 00000E2B FF 33                           	PUSH	DWORD [EBX]
  1620 00000E2D E8 [00000000]                   	CALL	_boxfill8
  1621 00000E32 8B 4E 08                        	MOV	ECX,DWORD [8+ESI]
  1622 00000E35 8D 41 10                        	LEA	EAX,DWORD [16+ECX]
  1623 00000E38 50                              	PUSH	EAX
  1624 00000E39 8B 56 04                        	MOV	EDX,DWORD [4+ESI]
  1625 00000E3C 8D 42 08                        	LEA	EAX,DWORD [8+EDX]
  1626 00000E3F 50                              	PUSH	EAX
  1627 00000E40 51                              	PUSH	ECX
  1628 00000E41 52                              	PUSH	EDX
  1629 00000E42 FF 36                           	PUSH	DWORD [ESI]
  1630 00000E44 E8 [00000000]                   	CALL	_sheet_refresh
  1631 00000E49 83 C4 30                        	ADD	ESP,48
  1632 00000E4C 8B 06                           	MOV	EAX,DWORD [ESI]
  1633 00000E4E 83 48 1C 40                     	OR	DWORD [28+EAX],64
  1634 00000E52                                 L331:
  1635 00000E52 57                              	PUSH	EDI
  1636 00000E53 E8 [00000000]                   	CALL	_task_sleep
  1637 00000E58 59                              	POP	ECX
  1638 00000E59 EB F7                           	JMP	L331
  1639 00000E5B                                 	GLOBAL	_cmd_start
  1640 00000E5B                                 _cmd_start:
  1641 00000E5B 55                              	PUSH	EBP
  1642 00000E5C 89 E5                           	MOV	EBP,ESP
  1643 00000E5E 57                              	PUSH	EDI
  1644 00000E5F 56                              	PUSH	ESI
  1645 00000E60 53                              	PUSH	EBX
  1646 00000E61 57                              	PUSH	EDI
  1647 00000E62 57                              	PUSH	EDI
  1648 00000E63 8B 45 08                        	MOV	EAX,DWORD [8+EBP]
  1649 00000E66 8B 7D 0C                        	MOV	EDI,DWORD [12+EBP]
  1650 00000E69 8B 35 00000FE4                  	MOV	ESI,DWORD [4068]
  1651 00000E6F 89 45 F0                        	MOV	DWORD [-16+EBP],EAX
  1652 00000E72 FF 75 10                        	PUSH	DWORD [16+EBP]
  1653 00000E75 56                              	PUSH	ESI
  1654 00000E76 E8 [00000000]                   	CALL	_open_console
  1655 00000E7B 89 C3                           	MOV	EBX,EAX
  1656 00000E7D 8B 40 24                        	MOV	EAX,DWORD [36+EAX]
  1657 00000E80 83 C0 24                        	ADD	EAX,36
  1658 00000E83 89 45 EC                        	MOV	DWORD [-20+EBP],EAX
  1659 00000E86 6A 04                           	PUSH	4
  1660 00000E88 6A 20                           	PUSH	32
  1661 00000E8A 53                              	PUSH	EBX
  1662 00000E8B E8 [00000000]                   	CALL	_sheet_slide
  1663 00000E90 FF 76 10                        	PUSH	DWORD [16+ESI]
  1664 00000E93 53                              	PUSH	EBX
  1665 00000E94 BB 00000006                     	MOV	EBX,6
  1666 00000E99 E8 [00000000]                   	CALL	_sheet_updown
  1667 00000E9E 83 C4 1C                        	ADD	ESP,28
  1668 00000EA1 80 7F 06 00                     	CMP	BYTE [6+EDI],0
  1669 00000EA5 75 21                           	JNE	L339
  1670 00000EA7                                 L341:
  1671 00000EA7 68 0000010A                     	PUSH	266
  1672 00000EAC FF 75 EC                        	PUSH	DWORD [-20+EBP]
  1673 00000EAF E8 [00000000]                   	CALL	_fifo32_put
  1674 00000EB4 58                              	POP	EAX
  1675 00000EB5 8B 45 F0                        	MOV	EAX,DWORD [-16+EBP]
  1676 00000EB8 5A                              	POP	EDX
  1677 00000EB9 89 45 08                        	MOV	DWORD [8+EBP],EAX
  1678 00000EBC 8D 65 F4                        	LEA	ESP,DWORD [-12+EBP]
  1679 00000EBF 5B                              	POP	EBX
  1680 00000EC0 5E                              	POP	ESI
  1681 00000EC1 5F                              	POP	EDI
  1682 00000EC2 5D                              	POP	EBP
  1683 00000EC3 E9 FFFFF878                     	JMP	_cons_newline
  1684 00000EC8                                 L339:
  1685 00000EC8 0F BE 04 3B                     	MOVSX	EAX,BYTE [EBX+EDI*1]
  1686 00000ECC 05 00000100                     	ADD	EAX,256
  1687 00000ED1 43                              	INC	EBX
  1688 00000ED2 50                              	PUSH	EAX
  1689 00000ED3 FF 75 EC                        	PUSH	DWORD [-20+EBP]
  1690 00000ED6 E8 [00000000]                   	CALL	_fifo32_put
  1691 00000EDB 80 3C 3B 00                     	CMP	BYTE [EBX+EDI*1],0
  1692 00000EDF 59                              	POP	ECX
  1693 00000EE0 5E                              	POP	ESI
  1694 00000EE1 75 E5                           	JNE	L339
  1695 00000EE3 EB C2                           	JMP	L341
  1696 00000EE5                                 	GLOBAL	_cmd_ncst
  1697 00000EE5                                 _cmd_ncst:
  1698 00000EE5 55                              	PUSH	EBP
  1699 00000EE6 89 E5                           	MOV	EBP,ESP
  1700 00000EE8 57                              	PUSH	EDI
  1701 00000EE9 56                              	PUSH	ESI
  1702 00000EEA BE 00000005                     	MOV	ESI,5
  1703 00000EEF 53                              	PUSH	EBX
  1704 00000EF0 51                              	PUSH	ECX
  1705 00000EF1 8B 45 08                        	MOV	EAX,DWORD [8+EBP]
  1706 00000EF4 8B 5D 0C                        	MOV	EBX,DWORD [12+EBP]
  1707 00000EF7 89 45 F0                        	MOV	DWORD [-16+EBP],EAX
  1708 00000EFA FF 75 10                        	PUSH	DWORD [16+EBP]
  1709 00000EFD 6A 00                           	PUSH	0
  1710 00000EFF E8 [00000000]                   	CALL	_open_constask
  1711 00000F04 80 7B 05 00                     	CMP	BYTE [5+EBX],0
  1712 00000F08 8D 78 24                        	LEA	EDI,DWORD [36+EAX]
  1713 00000F0B 58                              	POP	EAX
  1714 00000F0C 5A                              	POP	EDX
  1715 00000F0D 75 1F                           	JNE	L347
  1716 00000F0F                                 L349:
  1717 00000F0F 68 0000010A                     	PUSH	266
  1718 00000F14 57                              	PUSH	EDI
  1719 00000F15 E8 [00000000]                   	CALL	_fifo32_put
  1720 00000F1A 58                              	POP	EAX
  1721 00000F1B 8B 45 F0                        	MOV	EAX,DWORD [-16+EBP]
  1722 00000F1E 5A                              	POP	EDX
  1723 00000F1F 89 45 08                        	MOV	DWORD [8+EBP],EAX
  1724 00000F22 8D 65 F4                        	LEA	ESP,DWORD [-12+EBP]
  1725 00000F25 5B                              	POP	EBX
  1726 00000F26 5E                              	POP	ESI
  1727 00000F27 5F                              	POP	EDI
  1728 00000F28 5D                              	POP	EBP
  1729 00000F29 E9 FFFFF812                     	JMP	_cons_newline
  1730 00000F2E                                 L347:
  1731 00000F2E 0F BE 04 1E                     	MOVSX	EAX,BYTE [ESI+EBX*1]
  1732 00000F32 05 00000100                     	ADD	EAX,256
  1733 00000F37 46                              	INC	ESI
  1734 00000F38 50                              	PUSH	EAX
  1735 00000F39 57                              	PUSH	EDI
  1736 00000F3A E8 [00000000]                   	CALL	_fifo32_put
  1737 00000F3F 80 3C 1E 00                     	CMP	BYTE [ESI+EBX*1],0
  1738 00000F43 59                              	POP	ECX
  1739 00000F44 58                              	POP	EAX
  1740 00000F45 75 E7                           	JNE	L347
  1741 00000F47 EB C6                           	JMP	L349
  1742                                          [SECTION .data]
  1743 0000015D                                 LC30:
  1744 0000015D 48 61 72 69 00                  	DB	"Hari",0x00
  1745 00000162                                 LC31:
  1746 00000162 2E 68 72 62 20 66 69 6C 65 20   	DB	".hrb file format error.",0x0A,0x00
       0000016C 66 6F 72 6D 61 74 20 65 72 72 
       00000176 6F 72 2E 0A 00 
  1747                                          [SECTION .text]
  1748 00000F49                                 	GLOBAL	_cmd_app
  1749 00000F49                                 _cmd_app:
  1750 00000F49 55                              	PUSH	EBP
  1751 00000F4A 89 E5                           	MOV	EBP,ESP
  1752 00000F4C 57                              	PUSH	EDI
  1753 00000F4D 56                              	PUSH	ESI
  1754 00000F4E 31 F6                           	XOR	ESI,ESI
  1755 00000F50 53                              	PUSH	EBX
  1756 00000F51 83 EC 38                        	SUB	ESP,56
  1757 00000F54 8B 5D 10                        	MOV	EBX,DWORD [16+EBP]
  1758 00000F57 E8 [00000000]                   	CALL	_task_now
  1759 00000F5C 89 45 C8                        	MOV	DWORD [-56+EBP],EAX
  1760 00000F5F                                 L356:
  1761 00000F5F 8A 04 1E                        	MOV	AL,BYTE [ESI+EBX*1]
  1762 00000F62 3C 20                           	CMP	AL,32
  1763 00000F64 7E 0A                           	JLE	L352
  1764 00000F66 88 44 35 D4                     	MOV	BYTE [-44+EBP+ESI*1],AL
  1765 00000F6A 46                              	INC	ESI
  1766 00000F6B 83 FE 0C                        	CMP	ESI,12
  1767 00000F6E 7E EF                           	JLE	L356
  1768 00000F70                                 L352:
  1769 00000F70 68 000000E0                     	PUSH	224
  1770 00000F75 8D 5D D4                        	LEA	EBX,DWORD [-44+EBP]
  1771 00000F78 68 00102600                     	PUSH	1058304
  1772 00000F7D 53                              	PUSH	EBX
  1773 00000F7E C6 44 35 D4 00                  	MOV	BYTE [-44+EBP+ESI*1],0
  1774 00000F83 E8 [00000000]                   	CALL	_file_search
  1775 00000F88 83 C4 0C                        	ADD	ESP,12
  1776 00000F8B 85 C0                           	TEST	EAX,EAX
  1777 00000F8D 89 45 D0                        	MOV	DWORD [-48+EBP],EAX
  1778 00000F90 0F 84 000001C3                  	JE	L386
  1779 00000F96                                 L385:
  1780 00000F96 8B 45 D0                        	MOV	EAX,DWORD [-48+EBP]
  1781 00000F99 FF 70 1C                        	PUSH	DWORD [28+EAX]
  1782 00000F9C 68 003C0000                     	PUSH	3932160
  1783 00000FA1 E8 [00000000]                   	CALL	_memman_alloc_4k
  1784 00000FA6 8B 55 D0                        	MOV	EDX,DWORD [-48+EBP]
  1785 00000FA9 68 00103E00                     	PUSH	1064448
  1786 00000FAE FF 75 0C                        	PUSH	DWORD [12+EBP]
  1787 00000FB1 50                              	PUSH	EAX
  1788 00000FB2 89 45 BC                        	MOV	DWORD [-68+EBP],EAX
  1789 00000FB5 FF 72 1C                        	PUSH	DWORD [28+EDX]
  1790 00000FB8 0F B7 42 1A                     	MOVZX	EAX,WORD [26+EDX]
  1791 00000FBC 50                              	PUSH	EAX
  1792 00000FBD E8 [00000000]                   	CALL	_file_loadfile
  1793 00000FC2 8B 7D D0                        	MOV	EDI,DWORD [-48+EBP]
  1794 00000FC5 83 C4 1C                        	ADD	ESP,28
  1795 00000FC8 83 7F 1C 23                     	CMP	DWORD [28+EDI],35
  1796 00000FCC 76 1F                           	JBE	L359
  1797 00000FCE 8B 75 BC                        	MOV	ESI,DWORD [-68+EBP]
  1798 00000FD1 B8 [0000015D]                   	MOV	EAX,LC30
  1799 00000FD6 FC                              	CLD
  1800 00000FD7 83 C6 04                        	ADD	ESI,4
  1801 00000FDA B9 00000004                     	MOV	ECX,4
  1802 00000FDF 89 C7                           	MOV	EDI,EAX
  1803 00000FE1 F3                              	REPE
  1804 00000FE2 A6                              	CMPSB
  1805 00000FE3 75 08                           	JNE	L359
  1806 00000FE5 8B 45 BC                        	MOV	EAX,DWORD [-68+EBP]
  1807 00000FE8 80 38 00                        	CMP	BYTE [EAX],0
  1808 00000FEB 74 37                           	JE	L387
  1809 00000FED                                 L359:
  1810 00000FED 68 [00000162]                   	PUSH	LC31
  1811 00000FF2 FF 75 08                        	PUSH	DWORD [8+EBP]
  1812 00000FF5 E8 FFFFF807                     	CALL	_cons_putstr0
  1813 00000FFA 5B                              	POP	EBX
  1814 00000FFB 5E                              	POP	ESI
  1815 00000FFC                                 L377:
  1816 00000FFC 8B 45 D0                        	MOV	EAX,DWORD [-48+EBP]
  1817 00000FFF FF 70 1C                        	PUSH	DWORD [28+EAX]
  1818 00001002 FF 75 BC                        	PUSH	DWORD [-68+EBP]
  1819 00001005 68 003C0000                     	PUSH	3932160
  1820 0000100A E8 [00000000]                   	CALL	_memman_free_4k
  1821 0000100F FF 75 08                        	PUSH	DWORD [8+EBP]
  1822 00001012 E8 FFFFF729                     	CALL	_cons_newline
  1823 00001017 B8 00000001                     	MOV	EAX,1
  1824 0000101C                                 L350:
  1825 0000101C 8D 65 F4                        	LEA	ESP,DWORD [-12+EBP]
  1826 0000101F 5B                              	POP	EBX
  1827 00001020 5E                              	POP	ESI
  1828 00001021 5F                              	POP	EDI
  1829 00001022 5D                              	POP	EBP
  1830 00001023 C3                              	RET
  1831 00001024                                 L387:
  1832 00001024 8B 10                           	MOV	EDX,DWORD [EAX]
  1833 00001026 8B 78 0C                        	MOV	EDI,DWORD [12+EAX]
  1834 00001029 8B 58 10                        	MOV	EBX,DWORD [16+EAX]
  1835 0000102C 8B 70 14                        	MOV	ESI,DWORD [20+EAX]
  1836 0000102F 52                              	PUSH	EDX
  1837 00001030 89 55 C4                        	MOV	DWORD [-60+EBP],EDX
  1838 00001033 68 003C0000                     	PUSH	3932160
  1839 00001038 89 7D C0                        	MOV	DWORD [-64+EBP],EDI
  1840 0000103B E8 [00000000]                   	CALL	_memman_alloc_4k
  1841 00001040 8B 7D D0                        	MOV	EDI,DWORD [-48+EBP]
  1842 00001043 8B 55 C8                        	MOV	EDX,DWORD [-56+EBP]
  1843 00001046 89 45 CC                        	MOV	DWORD [-52+EBP],EAX
  1844 00001049 89 82 000000BC                  	MOV	DWORD [188+EDX],EAX
  1845 0000104F 68 000040FA                     	PUSH	16634
  1846 00001054 FF 75 BC                        	PUSH	DWORD [-68+EBP]
  1847 00001057 8B 47 1C                        	MOV	EAX,DWORD [28+EDI]
  1848 0000105A 48                              	DEC	EAX
  1849 0000105B 50                              	PUSH	EAX
  1850 0000105C 89 D0                           	MOV	EAX,EDX
  1851 0000105E 05 000000A8                     	ADD	EAX,168
  1852 00001063 50                              	PUSH	EAX
  1853 00001064 E8 [00000000]                   	CALL	_set_segmdesc
  1854 00001069 8B 45 C4                        	MOV	EAX,DWORD [-60+EBP]
  1855 0000106C 68 000040F2                     	PUSH	16626
  1856 00001071 48                              	DEC	EAX
  1857 00001072 FF 75 CC                        	PUSH	DWORD [-52+EBP]
  1858 00001075 50                              	PUSH	EAX
  1859 00001076 8B 45 C8                        	MOV	EAX,DWORD [-56+EBP]
  1860 00001079 05 000000B0                     	ADD	EAX,176
  1861 0000107E 50                              	PUSH	EAX
  1862 0000107F E8 [00000000]                   	CALL	_set_segmdesc
  1863 00001084 83 C4 28                        	ADD	ESP,40
  1864 00001087 85 DB                           	TEST	EBX,EBX
  1865 00001089 7E 17                           	JLE	L380
  1866 0000108B 8B 4D C0                        	MOV	ECX,DWORD [-64+EBP]
  1867 0000108E 8B 45 BC                        	MOV	EAX,DWORD [-68+EBP]
  1868 00001091 03 4D CC                        	ADD	ECX,DWORD [-52+EBP]
  1869 00001094 8D 14 30                        	LEA	EDX,DWORD [EAX+ESI*1]
  1870 00001097 89 DE                           	MOV	ESI,EBX
  1871 00001099                                 L364:
  1872 00001099 8A 02                           	MOV	AL,BYTE [EDX]
  1873 0000109B 42                              	INC	EDX
  1874 0000109C 88 01                           	MOV	BYTE [ECX],AL
  1875 0000109E 41                              	INC	ECX
  1876 0000109F 4E                              	DEC	ESI
  1877 000010A0 75 F7                           	JNE	L364
  1878 000010A2                                 L380:
  1879 000010A2 8B 45 C8                        	MOV	EAX,DWORD [-56+EBP]
  1880 000010A5 BE 000000FF                     	MOV	ESI,255
  1881 000010AA 83 C0 44                        	ADD	EAX,68
  1882 000010AD 50                              	PUSH	EAX
  1883 000010AE 6A 0C                           	PUSH	12
  1884 000010B0 FF 75 C0                        	PUSH	DWORD [-64+EBP]
  1885 000010B3 6A 04                           	PUSH	4
  1886 000010B5 6A 1B                           	PUSH	27
  1887 000010B7 E8 [00000000]                   	CALL	_start_app
  1888 000010BC 8B 1D 00000FE4                  	MOV	EBX,DWORD [4068]
  1889 000010C2 83 C4 14                        	ADD	ESP,20
  1890 000010C5 81 C3 00000414                  	ADD	EBX,1044
  1891 000010CB                                 L370:
  1892 000010CB 8B 43 1C                        	MOV	EAX,DWORD [28+EBX]
  1893 000010CE 83 E0 11                        	AND	EAX,17
  1894 000010D1 83 F8 11                        	CMP	EAX,17
  1895 000010D4 74 6F                           	JE	L388
  1896 000010D6                                 L367:
  1897 000010D6 83 C3 28                        	ADD	EBX,40
  1898 000010D9 4E                              	DEC	ESI
  1899 000010DA 79 EF                           	JNS	L370
  1900 000010DC 31 DB                           	XOR	EBX,EBX
  1901 000010DE BE 00000007                     	MOV	ESI,7
  1902 000010E3                                 L376:
  1903 000010E3 8B 7D C8                        	MOV	EDI,DWORD [-56+EBP]
  1904 000010E6 8B 87 000000C4                  	MOV	EAX,DWORD [196+EDI]
  1905 000010EC 83 3C 18 00                     	CMP	DWORD [EAX+EBX*1],0
  1906 000010F0 75 2A                           	JNE	L389
  1907 000010F2                                 L373:
  1908 000010F2 83 C3 0C                        	ADD	EBX,12
  1909 000010F5 4E                              	DEC	ESI
  1910 000010F6 79 EB                           	JNS	L376
  1911 000010F8 8B 45 C8                        	MOV	EAX,DWORD [-56+EBP]
  1912 000010FB 83 C0 24                        	ADD	EAX,36
  1913 000010FE 50                              	PUSH	EAX
  1914 000010FF E8 [00000000]                   	CALL	_timer_cancelall
  1915 00001104 FF 75 C4                        	PUSH	DWORD [-60+EBP]
  1916 00001107 FF 75 CC                        	PUSH	DWORD [-52+EBP]
  1917 0000110A 68 003C0000                     	PUSH	3932160
  1918 0000110F E8 [00000000]                   	CALL	_memman_free_4k
  1919 00001114 83 C4 10                        	ADD	ESP,16
  1920 00001117 E9 FFFFFEE0                     	JMP	L377
  1921 0000111C                                 L389:
  1922 0000111C FF 74 18 04                     	PUSH	DWORD [4+EAX+EBX*1]
  1923 00001120 8B 87 000000C4                  	MOV	EAX,DWORD [196+EDI]
  1924 00001126 FF 34 18                        	PUSH	DWORD [EAX+EBX*1]
  1925 00001129 68 003C0000                     	PUSH	3932160
  1926 0000112E E8 [00000000]                   	CALL	_memman_free_4k
  1927 00001133 83 C4 0C                        	ADD	ESP,12
  1928 00001136 8B 87 000000C4                  	MOV	EAX,DWORD [196+EDI]
  1929 0000113C C7 04 18 00000000               	MOV	DWORD [EAX+EBX*1],0
  1930 00001143 EB AD                           	JMP	L373
  1931 00001145                                 L388:
  1932 00001145 8B 55 C8                        	MOV	EDX,DWORD [-56+EBP]
  1933 00001148 39 53 24                        	CMP	DWORD [36+EBX],EDX
  1934 0000114B 75 89                           	JNE	L367
  1935 0000114D 53                              	PUSH	EBX
  1936 0000114E E8 [00000000]                   	CALL	_sheet_free
  1937 00001153 5F                              	POP	EDI
  1938 00001154 E9 FFFFFF7D                     	JMP	L367
  1939 00001159                                 L386:
  1940 00001159 80 7C 35 D3 2E                  	CMP	BYTE [-45+EBP+ESI*1],46
  1941 0000115E 74 2F                           	JE	L357
  1942 00001160 68 000000E0                     	PUSH	224
  1943 00001165 68 00102600                     	PUSH	1058304
  1944 0000116A 53                              	PUSH	EBX
  1945 0000116B C6 44 35 D4 2E                  	MOV	BYTE [-44+EBP+ESI*1],46
  1946 00001170 C6 44 35 D5 48                  	MOV	BYTE [-43+EBP+ESI*1],72
  1947 00001175 C6 44 35 D6 52                  	MOV	BYTE [-42+EBP+ESI*1],82
  1948 0000117A C6 44 35 D7 42                  	MOV	BYTE [-41+EBP+ESI*1],66
  1949 0000117F C6 44 35 D8 00                  	MOV	BYTE [-40+EBP+ESI*1],0
  1950 00001184 E8 [00000000]                   	CALL	_file_search
  1951 00001189 83 C4 0C                        	ADD	ESP,12
  1952 0000118C 89 45 D0                        	MOV	DWORD [-48+EBP],EAX
  1953 0000118F                                 L357:
  1954 0000118F 83 7D D0 00                     	CMP	DWORD [-48+EBP],0
  1955 00001193 0F 85 FFFFFDFD                  	JNE	L385
  1956 00001199 31 C0                           	XOR	EAX,EAX
  1957 0000119B E9 FFFFFE7C                     	JMP	L350
  1958 000011A0                                 	GLOBAL	_hrb_api
  1959 000011A0                                 _hrb_api:
  1960 000011A0 55                              	PUSH	EBP
  1961 000011A1 89 E5                           	MOV	EBP,ESP
  1962 000011A3 57                              	PUSH	EDI
  1963 000011A4 56                              	PUSH	ESI
  1964 000011A5 53                              	PUSH	EBX
  1965 000011A6 83 EC 14                        	SUB	ESP,20
  1966 000011A9 8B 75 1C                        	MOV	ESI,DWORD [28+EBP]
  1967 000011AC 8B 7D 20                        	MOV	EDI,DWORD [32+EBP]
  1968 000011AF E8 [00000000]                   	CALL	_task_now
  1969 000011B4 83 FE 01                        	CMP	ESI,1
  1970 000011B7 8B 0D 00000FE4                  	MOV	ECX,DWORD [4068]
  1971 000011BD 89 45 F0                        	MOV	DWORD [-16+EBP],EAX
  1972 000011C0 89 4D E8                        	MOV	DWORD [-24+EBP],ECX
  1973 000011C3 8B 80 000000BC                  	MOV	EAX,DWORD [188+EAX]
  1974 000011C9 8B 55 F0                        	MOV	EDX,DWORD [-16+EBP]
  1975 000011CC 89 45 EC                        	MOV	DWORD [-20+EBP],EAX
  1976 000011CF A1 00000FEC                     	MOV	EAX,DWORD [4076]
  1977 000011D4 8B 9A 000000B8                  	MOV	EBX,DWORD [184+EDX]
  1978 000011DA 89 45 E4                        	MOV	DWORD [-28+EBP],EAX
  1979 000011DD 0F 84 0000063A                  	JE	L506
  1980 000011E3 83 FE 02                        	CMP	ESI,2
  1981 000011E6 0F 84 0000061F                  	JE	L507
  1982 000011EC 83 FE 03                        	CMP	ESI,3
  1983 000011EF 0F 84 00000603                  	JE	L508
  1984 000011F5 83 FE 04                        	CMP	ESI,4
  1985 000011F8 0F 84 000005EF                  	JE	L509
  1986 000011FE 83 FE 05                        	CMP	ESI,5
  1987 00001201 0F 84 00000568                  	JE	L510
  1988 00001207 83 FE 06                        	CMP	ESI,6
  1989 0000120A 0F 84 00000516                  	JE	L511
  1990 00001210 83 FE 07                        	CMP	ESI,7
  1991 00001213 0F 84 000004E6                  	JE	L512
  1992 00001219 83 FE 08                        	CMP	ESI,8
  1993 0000121C 0F 84 000004BC                  	JE	L513
  1994 00001222 83 FE 09                        	CMP	ESI,9
  1995 00001225 0F 84 00000498                  	JE	L514
  1996 0000122B 83 FE 0A                        	CMP	ESI,10
  1997 0000122E 0F 84 00000474                  	JE	L515
  1998 00001234 83 FE 0B                        	CMP	ESI,11
  1999 00001237 0F 84 00000434                  	JE	L516
  2000 0000123D 83 FE 0C                        	CMP	ESI,12
  2001 00001240 0F 84 0000041C                  	JE	L517
  2002 00001246 83 FE 0D                        	CMP	ESI,13
  2003 00001249 0F 84 000003CE                  	JE	L518
  2004 0000124F 83 FE 0E                        	CMP	ESI,14
  2005 00001252 0F 84 000003B8                  	JE	L519
  2006 00001258 83 FE 0F                        	CMP	ESI,15
  2007 0000125B 0F 84 000002A3                  	JE	L424
  2008 00001261 83 FE 10                        	CMP	ESI,16
  2009 00001264 0F 84 00000289                  	JE	L520
  2010 0000126A 83 FE 11                        	CMP	ESI,17
  2011 0000126D 0F 84 00000263                  	JE	L521
  2012 00001273 83 FE 12                        	CMP	ESI,18
  2013 00001276 0F 84 00000248                  	JE	L522
  2014 0000127C 83 FE 13                        	CMP	ESI,19
  2015 0000127F 0F 84 00000231                  	JE	L523
  2016 00001285 83 FE 14                        	CMP	ESI,20
  2017 00001288 0F 84 000001B5                  	JE	L524
  2018 0000128E 83 FE 15                        	CMP	ESI,21
  2019 00001291 0F 84 00000113                  	JE	L525
  2020 00001297 83 FE 16                        	CMP	ESI,22
  2021 0000129A 0F 84 000000EA                  	JE	L526
  2022 000012A0 83 FE 17                        	CMP	ESI,23
  2023 000012A3 0F 84 00000097                  	JE	L527
  2024 000012A9 83 FE 18                        	CMP	ESI,24
  2025 000012AC 74 6C                           	JE	L528
  2026 000012AE 83 FE 19                        	CMP	ESI,25
  2027 000012B1 74 3E                           	JE	L529
  2028 000012B3 83 FE 1A                        	CMP	ESI,26
  2029 000012B6 74 0A                           	JE	L530
  2030 000012B8                                 L392:
  2031 000012B8 31 C0                           	XOR	EAX,EAX
  2032 000012BA                                 L390:
  2033 000012BA 8D 65 F4                        	LEA	ESP,DWORD [-12+EBP]
  2034 000012BD 5B                              	POP	EBX
  2035 000012BE 5E                              	POP	ESI
  2036 000012BF 5F                              	POP	EDI
  2037 000012C0 5D                              	POP	EBP
  2038 000012C1 C3                              	RET
  2039 000012C2                                 L530:
  2040 000012C2 31 F6                           	XOR	ESI,ESI
  2041 000012C4                                 L489:
  2042 000012C4 8B 4D F0                        	MOV	ECX,DWORD [-16+EBP]
  2043 000012C7 8B 55 18                        	MOV	EDX,DWORD [24+EBP]
  2044 000012CA 03 55 EC                        	ADD	EDX,DWORD [-20+EBP]
  2045 000012CD 8B 81 000000CC                  	MOV	EAX,DWORD [204+ECX]
  2046 000012D3 8A 04 06                        	MOV	AL,BYTE [ESI+EAX*1]
  2047 000012D6 88 04 16                        	MOV	BYTE [ESI+EDX*1],AL
  2048 000012D9 8B 81 000000CC                  	MOV	EAX,DWORD [204+ECX]
  2049 000012DF 80 3C 06 00                     	CMP	BYTE [ESI+EAX*1],0
  2050 000012E3 74 07                           	JE	L490
  2051 000012E5 39 FE                           	CMP	ESI,EDI
  2052 000012E7 7D 03                           	JGE	L490
  2053 000012E9 46                              	INC	ESI
  2054 000012EA EB D8                           	JMP	L489
  2055 000012EC                                 L490:
  2056 000012EC 89 75 44                        	MOV	DWORD [68+EBP],ESI
  2057 000012EF EB C7                           	JMP	L392
  2058 000012F1                                 L529:
  2059 000012F1 31 F6                           	XOR	ESI,ESI
  2060 000012F3 8B 5D 24                        	MOV	EBX,DWORD [36+EBP]
  2061 000012F6 39 FE                           	CMP	ESI,EDI
  2062 000012F8 7D F2                           	JGE	L490
  2063 000012FA                                 L486:
  2064 000012FA 8B 4B 08                        	MOV	ECX,DWORD [8+EBX]
  2065 000012FD 3B 4B 04                        	CMP	ECX,DWORD [4+EBX]
  2066 00001300 74 EA                           	JE	L490
  2067 00001302 8B 45 18                        	MOV	EAX,DWORD [24+EBP]
  2068 00001305 8B 13                           	MOV	EDX,DWORD [EBX]
  2069 00001307 03 45 EC                        	ADD	EAX,DWORD [-20+EBP]
  2070 0000130A 8A 14 11                        	MOV	DL,BYTE [ECX+EDX*1]
  2071 0000130D 88 14 06                        	MOV	BYTE [ESI+EAX*1],DL
  2072 00001310 46                              	INC	ESI
  2073 00001311 FF 43 08                        	INC	DWORD [8+EBX]
  2074 00001314 39 FE                           	CMP	ESI,EDI
  2075 00001316 7C E2                           	JL	L486
  2076 00001318 EB D2                           	JMP	L490
  2077 0000131A                                 L528:
  2078 0000131A 8B 5D 24                        	MOV	EBX,DWORD [36+EBP]
  2079 0000131D 85 FF                           	TEST	EDI,EDI
  2080 0000131F 75 08                           	JNE	L474
  2081 00001321 8B 43 04                        	MOV	EAX,DWORD [4+EBX]
  2082 00001324                                 L497:
  2083 00001324 89 45 44                        	MOV	DWORD [68+EBP],EAX
  2084 00001327 EB 8F                           	JMP	L392
  2085 00001329                                 L474:
  2086 00001329 83 FF 01                        	CMP	EDI,1
  2087 0000132C 74 0D                           	JE	L531
  2088 0000132E 83 FF 02                        	CMP	EDI,2
  2089 00001331 75 85                           	JNE	L392
  2090 00001333 8B 43 08                        	MOV	EAX,DWORD [8+EBX]
  2091 00001336 2B 43 04                        	SUB	EAX,DWORD [4+EBX]
  2092 00001339 EB E9                           	JMP	L497
  2093 0000133B                                 L531:
  2094 0000133B 8B 43 08                        	MOV	EAX,DWORD [8+EBX]
  2095 0000133E EB E4                           	JMP	L497
  2096 00001340                                 L527:
  2097 00001340 8B 5D 24                        	MOV	EBX,DWORD [36+EBP]
  2098 00001343 85 FF                           	TEST	EDI,EDI
  2099 00001345 74 33                           	JE	L496
  2100 00001347 83 FF 01                        	CMP	EDI,1
  2101 0000134A 74 36                           	JE	L532
  2102 0000134C 83 FF 02                        	CMP	EDI,2
  2103 0000134F 74 23                           	JE	L533
  2104 00001351                                 L466:
  2105 00001351 83 7B 08 00                     	CMP	DWORD [8+EBX],0
  2106 00001355 78 14                           	JS	L534
  2107 00001357                                 L470:
  2108 00001357 8B 43 04                        	MOV	EAX,DWORD [4+EBX]
  2109 0000135A 39 43 08                        	CMP	DWORD [8+EBX],EAX
  2110 0000135D 0F 8E FFFFFF55                  	JLE	L392
  2111 00001363 89 43 08                        	MOV	DWORD [8+EBX],EAX
  2112 00001366 E9 FFFFFF4D                     	JMP	L392
  2113 0000136B                                 L534:
  2114 0000136B C7 43 08 00000000               	MOV	DWORD [8+EBX],0
  2115 00001372 EB E3                           	JMP	L470
  2116 00001374                                 L533:
  2117 00001374 8B 43 04                        	MOV	EAX,DWORD [4+EBX]
  2118 00001377 01 45 18                        	ADD	DWORD [24+EBP],EAX
  2119 0000137A                                 L496:
  2120 0000137A 8B 55 18                        	MOV	EDX,DWORD [24+EBP]
  2121 0000137D 89 53 08                        	MOV	DWORD [8+EBX],EDX
  2122 00001380 EB CF                           	JMP	L466
  2123 00001382                                 L532:
  2124 00001382 8B 4D 18                        	MOV	ECX,DWORD [24+EBP]
  2125 00001385 01 4B 08                        	ADD	DWORD [8+EBX],ECX
  2126 00001388 EB C7                           	JMP	L466
  2127 0000138A                                 L526:
  2128 0000138A 8B 5D 24                        	MOV	EBX,DWORD [36+EBP]
  2129 0000138D FF 73 04                        	PUSH	DWORD [4+EBX]
  2130 00001390 FF 33                           	PUSH	DWORD [EBX]
  2131 00001392 68 003C0000                     	PUSH	3932160
  2132 00001397 E8 [00000000]                   	CALL	_memman_free_4k
  2133 0000139C C7 03 00000000                  	MOV	DWORD [EBX],0
  2134 000013A2                                 L498:
  2135 000013A2 83 C4 0C                        	ADD	ESP,12
  2136 000013A5 E9 FFFFFF0E                     	JMP	L392
  2137 000013AA                                 L525:
  2138 000013AA 31 F6                           	XOR	ESI,ESI
  2139 000013AC 31 C0                           	XOR	EAX,EAX
  2140 000013AE                                 L458:
  2141 000013AE 8B 4D F0                        	MOV	ECX,DWORD [-16+EBP]
  2142 000013B1 8B 91 000000C4                  	MOV	EDX,DWORD [196+ECX]
  2143 000013B7 83 3C 02 00                     	CMP	DWORD [EDX+EAX*1],0
  2144 000013BB 74 09                           	JE	L454
  2145 000013BD 46                              	INC	ESI
  2146 000013BE 83 C0 0C                        	ADD	EAX,12
  2147 000013C1 83 FE 07                        	CMP	ESI,7
  2148 000013C4 7E E8                           	JLE	L458
  2149 000013C6                                 L454:
  2150 000013C6 6B C6 0C                        	IMUL	EAX,ESI,12
  2151 000013C9 C7 45 44 00000000               	MOV	DWORD [68+EBP],0
  2152 000013D0 8D 1C 10                        	LEA	EBX,DWORD [EAX+EDX*1]
  2153 000013D3 83 FE 07                        	CMP	ESI,7
  2154 000013D6 0F 8F FFFFFEDC                  	JG	L392
  2155 000013DC 8B 45 18                        	MOV	EAX,DWORD [24+EBP]
  2156 000013DF 68 000000E0                     	PUSH	224
  2157 000013E4 03 45 EC                        	ADD	EAX,DWORD [-20+EBP]
  2158 000013E7 68 00102600                     	PUSH	1058304
  2159 000013EC 50                              	PUSH	EAX
  2160 000013ED E8 [00000000]                   	CALL	_file_search
  2161 000013F2 83 C4 0C                        	ADD	ESP,12
  2162 000013F5 89 C6                           	MOV	ESI,EAX
  2163 000013F7 85 C0                           	TEST	EAX,EAX
  2164 000013F9 0F 84 FFFFFEB9                  	JE	L392
  2165 000013FF 89 5D 44                        	MOV	DWORD [68+EBP],EBX
  2166 00001402 FF 70 1C                        	PUSH	DWORD [28+EAX]
  2167 00001405 68 003C0000                     	PUSH	3932160
  2168 0000140A E8 [00000000]                   	CALL	_memman_alloc_4k
  2169 0000140F 89 03                           	MOV	DWORD [EBX],EAX
  2170 00001411 8B 46 1C                        	MOV	EAX,DWORD [28+ESI]
  2171 00001414 89 43 04                        	MOV	DWORD [4+EBX],EAX
  2172 00001417 8B 45 F0                        	MOV	EAX,DWORD [-16+EBP]
  2173 0000141A C7 43 08 00000000               	MOV	DWORD [8+EBX],0
  2174 00001421 68 00103E00                     	PUSH	1064448
  2175 00001426 FF B0 000000C8                  	PUSH	DWORD [200+EAX]
  2176 0000142C FF 33                           	PUSH	DWORD [EBX]
  2177 0000142E FF 76 1C                        	PUSH	DWORD [28+ESI]
  2178 00001431 0F B7 46 1A                     	MOVZX	EAX,WORD [26+ESI]
  2179 00001435 50                              	PUSH	EAX
  2180 00001436 E8 [00000000]                   	CALL	_file_loadfile
  2181 0000143B 83 C4 1C                        	ADD	ESP,28
  2182 0000143E E9 FFFFFE75                     	JMP	L392
  2183 00001443                                 L524:
  2184 00001443 8B 55 24                        	MOV	EDX,DWORD [36+EBP]
  2185 00001446 85 D2                           	TEST	EDX,EDX
  2186 00001448 75 19                           	JNE	L449
  2187 0000144A 6A 61                           	PUSH	97
  2188 0000144C E8 [00000000]                   	CALL	_io_in8
  2189 00001451 89 C6                           	MOV	ESI,EAX
  2190 00001453 83 E6 0D                        	AND	ESI,13
  2191 00001456 56                              	PUSH	ESI
  2192 00001457 6A 61                           	PUSH	97
  2193 00001459 E8 [00000000]                   	CALL	_io_out8
  2194 0000145E E9 FFFFFF3F                     	JMP	L498
  2195 00001463                                 L449:
  2196 00001463 B9 471E7B60                     	MOV	ECX,1193180000
  2197 00001468 89 D3                           	MOV	EBX,EDX
  2198 0000146A 89 C8                           	MOV	EAX,ECX
  2199 0000146C 68 000000B6                     	PUSH	182
  2200 00001471 99                              	CDQ
  2201 00001472 F7 FB                           	IDIV	EBX
  2202 00001474 6A 43                           	PUSH	67
  2203 00001476 89 C6                           	MOV	ESI,EAX
  2204 00001478 E8 [00000000]                   	CALL	_io_out8
  2205 0000147D 89 F0                           	MOV	EAX,ESI
  2206 0000147F C1 FE 08                        	SAR	ESI,8
  2207 00001482 25 000000FF                     	AND	EAX,255
  2208 00001487 50                              	PUSH	EAX
  2209 00001488 6A 42                           	PUSH	66
  2210 0000148A E8 [00000000]                   	CALL	_io_out8
  2211 0000148F 56                              	PUSH	ESI
  2212 00001490 6A 42                           	PUSH	66
  2213 00001492 E8 [00000000]                   	CALL	_io_out8
  2214 00001497 6A 61                           	PUSH	97
  2215 00001499 E8 [00000000]                   	CALL	_io_in8
  2216 0000149E 89 C6                           	MOV	ESI,EAX
  2217 000014A0 83 CE 03                        	OR	ESI,3
  2218 000014A3 83 E6 0F                        	AND	ESI,15
  2219 000014A6 56                              	PUSH	ESI
  2220 000014A7 6A 61                           	PUSH	97
  2221 000014A9 E8 [00000000]                   	CALL	_io_out8
  2222 000014AE 83 C4 24                        	ADD	ESP,36
  2223 000014B1 E9 FFFFFE02                     	JMP	L392
  2224 000014B6                                 L523:
  2225 000014B6 FF 75 18                        	PUSH	DWORD [24+EBP]
  2226 000014B9 E8 [00000000]                   	CALL	_timer_free
  2227 000014BE                                 L499:
  2228 000014BE 58                              	POP	EAX
  2229 000014BF E9 FFFFFDF4                     	JMP	L392
  2230 000014C4                                 L522:
  2231 000014C4 FF 75 24                        	PUSH	DWORD [36+EBP]
  2232 000014C7 FF 75 18                        	PUSH	DWORD [24+EBP]
  2233 000014CA E8 [00000000]                   	CALL	_timer_settime
  2234 000014CF                                 L501:
  2235 000014CF 58                              	POP	EAX
  2236 000014D0 5A                              	POP	EDX
  2237 000014D1 E9 FFFFFDE2                     	JMP	L392
  2238 000014D6                                 L521:
  2239 000014D6 8B 45 24                        	MOV	EAX,DWORD [36+EBP]
  2240 000014D9 05 00000100                     	ADD	EAX,256
  2241 000014DE 50                              	PUSH	EAX
  2242 000014DF 8B 45 F0                        	MOV	EAX,DWORD [-16+EBP]
  2243 000014E2 83 C0 24                        	ADD	EAX,36
  2244 000014E5 50                              	PUSH	EAX
  2245 000014E6 FF 75 18                        	PUSH	DWORD [24+EBP]
  2246 000014E9 E8 [00000000]                   	CALL	_timer_init
  2247 000014EE E9 FFFFFEAF                     	JMP	L498
  2248 000014F3                                 L520:
  2249 000014F3 E8 [00000000]                   	CALL	_timer_alloc
  2250 000014F8 89 45 44                        	MOV	DWORD [68+EBP],EAX
  2251 000014FB C6 40 09 01                     	MOV	BYTE [9+EAX],1
  2252 000014FF E9 FFFFFDB4                     	JMP	L392
  2253 00001504                                 L424:
  2254 00001504 E8 [00000000]                   	CALL	_io_cli
  2255 00001509 8B 45 F0                        	MOV	EAX,DWORD [-16+EBP]
  2256 0000150C 83 C0 24                        	ADD	EAX,36
  2257 0000150F 50                              	PUSH	EAX
  2258 00001510 E8 [00000000]                   	CALL	_fifo32_status
  2259 00001515 5F                              	POP	EDI
  2260 00001516 85 C0                           	TEST	EAX,EAX
  2261 00001518 75 13                           	JNE	L427
  2262 0000151A 83 7D 24 00                     	CMP	DWORD [36+EBP],0
  2263 0000151E 0F 84 000000DB                  	JE	L428
  2264 00001524 FF 75 F0                        	PUSH	DWORD [-16+EBP]
  2265 00001527 E8 [00000000]                   	CALL	_task_sleep
  2266 0000152C 5E                              	POP	ESI
  2267 0000152D                                 L427:
  2268 0000152D 8B 7D F0                        	MOV	EDI,DWORD [-16+EBP]
  2269 00001530 83 C7 24                        	ADD	EDI,36
  2270 00001533 57                              	PUSH	EDI
  2271 00001534 E8 [00000000]                   	CALL	_fifo32_get
  2272 00001539 89 C6                           	MOV	ESI,EAX
  2273 0000153B E8 [00000000]                   	CALL	_io_sti
  2274 00001540 59                              	POP	ECX
  2275 00001541 83 FE 01                        	CMP	ESI,1
  2276 00001544 0F 8E 0000008F                  	JLE	L535
  2277 0000154A                                 L430:
  2278 0000154A 83 FE 02                        	CMP	ESI,2
  2279 0000154D 74 7E                           	JE	L536
  2280 0000154F                                 L431:
  2281 0000154F 83 FE 03                        	CMP	ESI,3
  2282 00001552 74 70                           	JE	L537
  2283 00001554                                 L432:
  2284 00001554 83 FE 04                        	CMP	ESI,4
  2285 00001557 74 2D                           	JE	L538
  2286 00001559                                 L433:
  2287 00001559 81 FE 000000FF                  	CMP	ESI,255
  2288 0000155F 7E A3                           	JLE	L424
  2289 00001561 8D 86 FFFFFF00                  	LEA	EAX,DWORD [-256+ESI]
  2290 00001567 83 F8 7F                        	CMP	EAX,127
  2291 0000156A 0F 8F FFFFFDB4                  	JG	L497
  2292 00001570 8A 90 [00000000]                	MOV	DL,BYTE [_keytable0+EAX]
  2293 00001576 84 D2                           	TEST	DL,DL
  2294 00001578 0F 84 FFFFFDA6                  	JE	L497
  2295 0000157E 0F BE C2                        	MOVSX	EAX,DL
  2296 00001581 E9 FFFFFD9E                     	JMP	L497
  2297 00001586                                 L538:
  2298 00001586 FF 73 10                        	PUSH	DWORD [16+EBX]
  2299 00001589 E8 [00000000]                   	CALL	_timer_cancel
  2300 0000158E E8 [00000000]                   	CALL	_io_cli
  2301 00001593 8B 03                           	MOV	EAX,DWORD [EBX]
  2302 00001595 2B 45 E8                        	SUB	EAX,DWORD [-24+EBP]
  2303 00001598 2D 00000414                     	SUB	EAX,1044
  2304 0000159D C1 F8 03                        	SAR	EAX,3
  2305 000015A0 69 C0 CCCCCCCD                  	IMUL	EAX,EAX,-858993459
  2306 000015A6 05 000007E8                     	ADD	EAX,2024
  2307 000015AB 50                              	PUSH	EAX
  2308 000015AC FF 75 E4                        	PUSH	DWORD [-28+EBP]
  2309 000015AF E8 [00000000]                   	CALL	_fifo32_put
  2310 000015B4 C7 03 00000000                  	MOV	DWORD [EBX],0
  2311 000015BA E8 [00000000]                   	CALL	_io_sti
  2312 000015BF 83 C4 0C                        	ADD	ESP,12
  2313 000015C2 EB 95                           	JMP	L433
  2314 000015C4                                 L537:
  2315 000015C4 C7 43 0C FFFFFFFF               	MOV	DWORD [12+EBX],-1
  2316 000015CB EB 87                           	JMP	L432
  2317 000015CD                                 L536:
  2318 000015CD C7 43 0C 00000007               	MOV	DWORD [12+EBX],7
  2319 000015D4 E9 FFFFFF76                     	JMP	L431
  2320 000015D9                                 L535:
  2321 000015D9 83 3B 00                        	CMP	DWORD [EBX],0
  2322 000015DC 0F 84 FFFFFF68                  	JE	L430
  2323 000015E2 6A 01                           	PUSH	1
  2324 000015E4 57                              	PUSH	EDI
  2325 000015E5 FF 73 10                        	PUSH	DWORD [16+EBX]
  2326 000015E8 E8 [00000000]                   	CALL	_timer_init
  2327 000015ED 6A 32                           	PUSH	50
  2328 000015EF FF 73 10                        	PUSH	DWORD [16+EBX]
  2329 000015F2 E8 [00000000]                   	CALL	_timer_settime
  2330 000015F7 83 C4 14                        	ADD	ESP,20
  2331 000015FA E9 FFFFFF4B                     	JMP	L430
  2332 000015FF                                 L428:
  2333 000015FF E8 [00000000]                   	CALL	_io_sti
  2334 00001604 C7 45 44 FFFFFFFF               	MOV	DWORD [68+EBP],-1
  2335 0000160B E9 FFFFFCA8                     	JMP	L392
  2336 00001610                                 L519:
  2337 00001610 FF 75 18                        	PUSH	DWORD [24+EBP]
  2338 00001613 E8 [00000000]                   	CALL	_sheet_free
  2339 00001618 E9 FFFFFEA1                     	JMP	L499
  2340 0000161D                                 L518:
  2341 0000161D FF 75 10                        	PUSH	DWORD [16+EBP]
  2342 00001620 FF 75 08                        	PUSH	DWORD [8+EBP]
  2343 00001623 FF 75 0C                        	PUSH	DWORD [12+EBP]
  2344 00001626 57                              	PUSH	EDI
  2345 00001627 8B 75 18                        	MOV	ESI,DWORD [24+EBP]
  2346 0000162A FF 75 24                        	PUSH	DWORD [36+EBP]
  2347 0000162D 83 E6 FE                        	AND	ESI,-2
  2348 00001630 56                              	PUSH	ESI
  2349 00001631 E8 000003F9                     	CALL	_hrb_api_linewin
  2350 00001636 83 C4 18                        	ADD	ESP,24
  2351 00001639                                 L505:
  2352 00001639 F7 45 18 00000001               	TEST	DWORD [24+EBP],1
  2353 00001640 0F 85 FFFFFC72                  	JNE	L392
  2354 00001646 8B 45 08                        	MOV	EAX,DWORD [8+EBP]
  2355 00001649 40                              	INC	EAX
  2356 0000164A 50                              	PUSH	EAX
  2357 0000164B 8B 45 0C                        	MOV	EAX,DWORD [12+EBP]
  2358 0000164E 40                              	INC	EAX
  2359 0000164F 50                              	PUSH	EAX
  2360 00001650 57                              	PUSH	EDI
  2361 00001651 FF 75 24                        	PUSH	DWORD [36+EBP]
  2362 00001654                                 L503:
  2363 00001654 56                              	PUSH	ESI
  2364 00001655                                 L500:
  2365 00001655 E8 [00000000]                   	CALL	_sheet_refresh
  2366 0000165A                                 L502:
  2367 0000165A 83 C4 14                        	ADD	ESP,20
  2368 0000165D E9 FFFFFC56                     	JMP	L392
  2369 00001662                                 L517:
  2370 00001662 FF 75 08                        	PUSH	DWORD [8+EBP]
  2371 00001665 FF 75 0C                        	PUSH	DWORD [12+EBP]
  2372 00001668 57                              	PUSH	EDI
  2373 00001669 FF 75 24                        	PUSH	DWORD [36+EBP]
  2374 0000166C FF 75 18                        	PUSH	DWORD [24+EBP]
  2375 0000166F EB E4                           	JMP	L500
  2376 00001671                                 L516:
  2377 00001671 8B 75 18                        	MOV	ESI,DWORD [24+EBP]
  2378 00001674 8B 45 08                        	MOV	EAX,DWORD [8+EBP]
  2379 00001677 83 E6 FE                        	AND	ESI,-2
  2380 0000167A 8A 55 24                        	MOV	DL,BYTE [36+EBP]
  2381 0000167D 0F AF 46 04                     	IMUL	EAX,DWORD [4+ESI]
  2382 00001681 03 45 0C                        	ADD	EAX,DWORD [12+EBP]
  2383 00001684 8B 0E                           	MOV	ECX,DWORD [ESI]
  2384 00001686 88 14 08                        	MOV	BYTE [EAX+ECX*1],DL
  2385 00001689 F7 45 18 00000001               	TEST	DWORD [24+EBP],1
  2386 00001690 0F 85 FFFFFC22                  	JNE	L392
  2387 00001696 8B 45 08                        	MOV	EAX,DWORD [8+EBP]
  2388 00001699 40                              	INC	EAX
  2389 0000169A 50                              	PUSH	EAX
  2390 0000169B 8B 45 0C                        	MOV	EAX,DWORD [12+EBP]
  2391 0000169E 40                              	INC	EAX
  2392 0000169F 50                              	PUSH	EAX
  2393 000016A0 FF 75 08                        	PUSH	DWORD [8+EBP]
  2394 000016A3 FF 75 0C                        	PUSH	DWORD [12+EBP]
  2395 000016A6 EB AC                           	JMP	L503
  2396 000016A8                                 L515:
  2397 000016A8 8D 47 0F                        	LEA	EAX,DWORD [15+EDI]
  2398 000016AB 83 E0 F0                        	AND	EAX,-16
  2399 000016AE 50                              	PUSH	EAX
  2400 000016AF 8B 45 18                        	MOV	EAX,DWORD [24+EBP]
  2401 000016B2 03 45 EC                        	ADD	EAX,DWORD [-20+EBP]
  2402 000016B5 FF 75 24                        	PUSH	DWORD [36+EBP]
  2403 000016B8 50                              	PUSH	EAX
  2404 000016B9 E8 [00000000]                   	CALL	_memman_free
  2405 000016BE E9 FFFFFCDF                     	JMP	L498
  2406 000016C3                                 L514:
  2407 000016C3 8D 47 0F                        	LEA	EAX,DWORD [15+EDI]
  2408 000016C6 83 E0 F0                        	AND	EAX,-16
  2409 000016C9 50                              	PUSH	EAX
  2410 000016CA 8B 45 18                        	MOV	EAX,DWORD [24+EBP]
  2411 000016CD 03 45 EC                        	ADD	EAX,DWORD [-20+EBP]
  2412 000016D0 50                              	PUSH	EAX
  2413 000016D1 E8 [00000000]                   	CALL	_memman_alloc
  2414 000016D6 89 45 44                        	MOV	DWORD [68+EBP],EAX
  2415 000016D9 E9 FFFFFDF1                     	JMP	L501
  2416 000016DE                                 L513:
  2417 000016DE 8B 5D 18                        	MOV	EBX,DWORD [24+EBP]
  2418 000016E1 83 E7 F0                        	AND	EDI,-16
  2419 000016E4 03 5D EC                        	ADD	EBX,DWORD [-20+EBP]
  2420 000016E7 53                              	PUSH	EBX
  2421 000016E8 E8 [00000000]                   	CALL	_memman_init
  2422 000016ED 57                              	PUSH	EDI
  2423 000016EE FF 75 24                        	PUSH	DWORD [36+EBP]
  2424 000016F1 53                              	PUSH	EBX
  2425 000016F2 E8 [00000000]                   	CALL	_memman_free
  2426 000016F7 83 C4 10                        	ADD	ESP,16
  2427 000016FA E9 FFFFFBB9                     	JMP	L392
  2428 000016FF                                 L512:
  2429 000016FF FF 75 08                        	PUSH	DWORD [8+EBP]
  2430 00001702 FF 75 0C                        	PUSH	DWORD [12+EBP]
  2431 00001705 57                              	PUSH	EDI
  2432 00001706 8B 75 18                        	MOV	ESI,DWORD [24+EBP]
  2433 00001709 FF 75 24                        	PUSH	DWORD [36+EBP]
  2434 0000170C 83 E6 FE                        	AND	ESI,-2
  2435 0000170F 0F B6 45 10                     	MOVZX	EAX,BYTE [16+EBP]
  2436 00001713 50                              	PUSH	EAX
  2437 00001714 FF 76 04                        	PUSH	DWORD [4+ESI]
  2438 00001717 FF 36                           	PUSH	DWORD [ESI]
  2439 00001719 E8 [00000000]                   	CALL	_boxfill8
  2440 0000171E 83 C4 1C                        	ADD	ESP,28
  2441 00001721 E9 FFFFFF13                     	JMP	L505
  2442 00001726                                 L511:
  2443 00001726 8B 45 10                        	MOV	EAX,DWORD [16+EBP]
  2444 00001729 8B 75 18                        	MOV	ESI,DWORD [24+EBP]
  2445 0000172C 03 45 EC                        	ADD	EAX,DWORD [-20+EBP]
  2446 0000172F 83 E6 FE                        	AND	ESI,-2
  2447 00001732 50                              	PUSH	EAX
  2448 00001733 0F BE 45 24                     	MOVSX	EAX,BYTE [36+EBP]
  2449 00001737 50                              	PUSH	EAX
  2450 00001738 FF 75 08                        	PUSH	DWORD [8+EBP]
  2451 0000173B FF 75 0C                        	PUSH	DWORD [12+EBP]
  2452 0000173E FF 76 04                        	PUSH	DWORD [4+ESI]
  2453 00001741 FF 36                           	PUSH	DWORD [ESI]
  2454 00001743 E8 [00000000]                   	CALL	_putfonts8_asc
  2455 00001748 83 C4 18                        	ADD	ESP,24
  2456 0000174B F7 45 18 00000001               	TEST	DWORD [24+EBP],1
  2457 00001752 0F 85 FFFFFB60                  	JNE	L392
  2458 00001758 8B 55 0C                        	MOV	EDX,DWORD [12+EBP]
  2459 0000175B 8B 45 08                        	MOV	EAX,DWORD [8+EBP]
  2460 0000175E 83 C0 10                        	ADD	EAX,16
  2461 00001761 50                              	PUSH	EAX
  2462 00001762 8D 04 FA                        	LEA	EAX,DWORD [EDX+EDI*8]
  2463 00001765 50                              	PUSH	EAX
  2464 00001766 FF 75 08                        	PUSH	DWORD [8+EBP]
  2465 00001769 52                              	PUSH	EDX
  2466 0000176A E9 FFFFFEE5                     	JMP	L503
  2467 0000176F                                 L510:
  2468 0000176F FF 75 E8                        	PUSH	DWORD [-24+EBP]
  2469 00001772 E8 [00000000]                   	CALL	_sheet_alloc
  2470 00001777 8B 5D 18                        	MOV	EBX,DWORD [24+EBP]
  2471 0000177A 8B 55 F0                        	MOV	EDX,DWORD [-16+EBP]
  2472 0000177D 89 C6                           	MOV	ESI,EAX
  2473 0000177F 89 50 24                        	MOV	DWORD [36+EAX],EDX
  2474 00001782 03 5D EC                        	ADD	EBX,DWORD [-20+EBP]
  2475 00001785 83 48 1C 10                     	OR	DWORD [28+EAX],16
  2476 00001789 FF 75 24                        	PUSH	DWORD [36+EBP]
  2477 0000178C FF 75 08                        	PUSH	DWORD [8+EBP]
  2478 0000178F FF 75 0C                        	PUSH	DWORD [12+EBP]
  2479 00001792 53                              	PUSH	EBX
  2480 00001793 50                              	PUSH	EAX
  2481 00001794 E8 [00000000]                   	CALL	_sheet_setbuf
  2482 00001799 8B 4D EC                        	MOV	ECX,DWORD [-20+EBP]
  2483 0000179C 6A 00                           	PUSH	0
  2484 0000179E 8D 04 39                        	LEA	EAX,DWORD [ECX+EDI*1]
  2485 000017A1 50                              	PUSH	EAX
  2486 000017A2 FF 75 08                        	PUSH	DWORD [8+EBP]
  2487 000017A5 FF 75 0C                        	PUSH	DWORD [12+EBP]
  2488 000017A8 53                              	PUSH	EBX
  2489 000017A9 E8 [00000000]                   	CALL	_make_window8
  2490 000017AE 8B 4D E8                        	MOV	ECX,DWORD [-24+EBP]
  2491 000017B1 8B 5D E8                        	MOV	EBX,DWORD [-24+EBP]
  2492 000017B4 83 C4 2C                        	ADD	ESP,44
  2493 000017B7 8B 43 0C                        	MOV	EAX,DWORD [12+EBX]
  2494 000017BA BB 00000002                     	MOV	EBX,2
  2495 000017BF 2B 45 08                        	SUB	EAX,DWORD [8+EBP]
  2496 000017C2 99                              	CDQ
  2497 000017C3 F7 FB                           	IDIV	EBX
  2498 000017C5 50                              	PUSH	EAX
  2499 000017C6 8B 41 08                        	MOV	EAX,DWORD [8+ECX]
  2500 000017C9 2B 45 0C                        	SUB	EAX,DWORD [12+EBP]
  2501 000017CC 99                              	CDQ
  2502 000017CD F7 FB                           	IDIV	EBX
  2503 000017CF 83 E0 FC                        	AND	EAX,-4
  2504 000017D2 50                              	PUSH	EAX
  2505 000017D3 56                              	PUSH	ESI
  2506 000017D4 E8 [00000000]                   	CALL	_sheet_slide
  2507 000017D9 8B 5D E8                        	MOV	EBX,DWORD [-24+EBP]
  2508 000017DC FF 73 10                        	PUSH	DWORD [16+EBX]
  2509 000017DF 56                              	PUSH	ESI
  2510 000017E0 E8 [00000000]                   	CALL	_sheet_updown
  2511 000017E5 89 75 44                        	MOV	DWORD [68+EBP],ESI
  2512 000017E8 E9 FFFFFE6D                     	JMP	L502
  2513 000017ED                                 L509:
  2514 000017ED 8B 45 F0                        	MOV	EAX,DWORD [-16+EBP]
  2515 000017F0 83 C0 44                        	ADD	EAX,68
  2516 000017F3 E9 FFFFFAC2                     	JMP	L390
  2517 000017F8                                 L508:
  2518 000017F8 8B 45 18                        	MOV	EAX,DWORD [24+EBP]
  2519 000017FB 57                              	PUSH	EDI
  2520 000017FC 03 45 EC                        	ADD	EAX,DWORD [-20+EBP]
  2521 000017FF 50                              	PUSH	EAX
  2522 00001800 53                              	PUSH	EBX
  2523 00001801 E8 FFFFF029                     	CALL	_cons_putstr1
  2524 00001806 E9 FFFFFB97                     	JMP	L498
  2525 0000180B                                 L507:
  2526 0000180B 8B 45 18                        	MOV	EAX,DWORD [24+EBP]
  2527 0000180E 03 45 EC                        	ADD	EAX,DWORD [-20+EBP]
  2528 00001811 50                              	PUSH	EAX
  2529 00001812 53                              	PUSH	EBX
  2530 00001813 E8 FFFFEFE9                     	CALL	_cons_putstr0
  2531 00001818 E9 FFFFFCB2                     	JMP	L501
  2532 0000181D                                 L506:
  2533 0000181D 6A 01                           	PUSH	1
  2534 0000181F 0F B6 45 24                     	MOVZX	EAX,BYTE [36+EBP]
  2535 00001823 50                              	PUSH	EAX
  2536 00001824 53                              	PUSH	EBX
  2537 00001825 E8 FFFFEE65                     	CALL	_cons_putchar
  2538 0000182A E9 FFFFFB73                     	JMP	L498
  2539                                          [SECTION .data]
  2540 0000017B                                 LC32:
  2541 0000017B 0A 49 4E 54 20 30 43 20 3A 0A   	DB	0x0A,"INT 0C :",0x0A," Stack Exception.",0x0A,0x00
       00000185 20 53 74 61 63 6B 20 45 78 63 
       0000018F 65 70 74 69 6F 6E 2E 0A 00 
  2542 00000198                                 LC33:
  2543 00000198 45 49 50 20 3D 20 25 30 38 58   	DB	"EIP = %08X",0x0A,0x00
       000001A2 0A 00 
  2544                                          [SECTION .text]
  2545 0000182F                                 	GLOBAL	_inthandler0c
  2546 0000182F                                 _inthandler0c:
  2547 0000182F 55                              	PUSH	EBP
  2548 00001830 89 E5                           	MOV	EBP,ESP
  2549 00001832 57                              	PUSH	EDI
  2550 00001833 56                              	PUSH	ESI
  2551 00001834 53                              	PUSH	EBX
  2552 00001835 8D 5D D4                        	LEA	EBX,DWORD [-44+EBP]
  2553 00001838 83 EC 20                        	SUB	ESP,32
  2554 0000183B E8 [00000000]                   	CALL	_task_now
  2555 00001840 89 C6                           	MOV	ESI,EAX
  2556 00001842 8B B8 000000B8                  	MOV	EDI,DWORD [184+EAX]
  2557 00001848 83 C6 44                        	ADD	ESI,68
  2558 0000184B 68 [0000017B]                   	PUSH	LC32
  2559 00001850 57                              	PUSH	EDI
  2560 00001851 E8 FFFFEFAB                     	CALL	_cons_putstr0
  2561 00001856 8B 45 08                        	MOV	EAX,DWORD [8+EBP]
  2562 00001859 FF 70 2C                        	PUSH	DWORD [44+EAX]
  2563 0000185C 68 [00000198]                   	PUSH	LC33
  2564 00001861 53                              	PUSH	EBX
  2565 00001862 E8 [00000000]                   	CALL	_sprintf
  2566 00001867 53                              	PUSH	EBX
  2567 00001868 57                              	PUSH	EDI
  2568 00001869 E8 FFFFEF93                     	CALL	_cons_putstr0
  2569 0000186E 8D 65 F4                        	LEA	ESP,DWORD [-12+EBP]
  2570 00001871 5B                              	POP	EBX
  2571 00001872 89 F0                           	MOV	EAX,ESI
  2572 00001874 5E                              	POP	ESI
  2573 00001875 5F                              	POP	EDI
  2574 00001876 5D                              	POP	EBP
  2575 00001877 C3                              	RET
  2576                                          [SECTION .data]
  2577 000001A4                                 LC34:
  2578 000001A4 0A 49 4E 54 20 30 44 20 3A 0A   	DB	0x0A,"INT 0D :",0x0A," General Protected Exception.",0x0A,0x00
       000001AE 20 47 65 6E 65 72 61 6C 20 50 
       000001B8 72 6F 74 65 63 74 65 64 20 45 
       000001C2 78 63 65 70 74 69 6F 6E 2E 0A 
       000001CC 00 
  2579                                          [SECTION .text]
  2580 00001878                                 	GLOBAL	_inthandler0d
  2581 00001878                                 _inthandler0d:
  2582 00001878 55                              	PUSH	EBP
  2583 00001879 89 E5                           	MOV	EBP,ESP
  2584 0000187B 57                              	PUSH	EDI
  2585 0000187C 56                              	PUSH	ESI
  2586 0000187D 53                              	PUSH	EBX
  2587 0000187E 8D 5D D4                        	LEA	EBX,DWORD [-44+EBP]
  2588 00001881 83 EC 20                        	SUB	ESP,32
  2589 00001884 E8 [00000000]                   	CALL	_task_now
  2590 00001889 89 C6                           	MOV	ESI,EAX
  2591 0000188B 8B B8 000000B8                  	MOV	EDI,DWORD [184+EAX]
  2592 00001891 83 C6 44                        	ADD	ESI,68
  2593 00001894 68 [000001A4]                   	PUSH	LC34
  2594 00001899 57                              	PUSH	EDI
  2595 0000189A E8 FFFFEF62                     	CALL	_cons_putstr0
  2596 0000189F 8B 45 08                        	MOV	EAX,DWORD [8+EBP]
  2597 000018A2 FF 70 2C                        	PUSH	DWORD [44+EAX]
  2598 000018A5 68 [00000198]                   	PUSH	LC33
  2599 000018AA 53                              	PUSH	EBX
  2600 000018AB E8 [00000000]                   	CALL	_sprintf
  2601 000018B0 53                              	PUSH	EBX
  2602 000018B1 57                              	PUSH	EDI
  2603 000018B2 E8 FFFFEF4A                     	CALL	_cons_putstr0
  2604 000018B7 8D 65 F4                        	LEA	ESP,DWORD [-12+EBP]
  2605 000018BA 5B                              	POP	EBX
  2606 000018BB 89 F0                           	MOV	EAX,ESI
  2607 000018BD 5E                              	POP	ESI
  2608 000018BE 5F                              	POP	EDI
  2609 000018BF 5D                              	POP	EBP
  2610 000018C0 C3                              	RET
  2611                                          [SECTION .data]
  2612 000001CD                                 LC35:
  2613 000001CD 4D 65 6D 6F 72 79 20 61 6C 6C   	DB	"Memory allocation strategy set to: %s",0x0A,0x0A,0x00
       000001D7 6F 63 61 74 69 6F 6E 20 73 74 
       000001E1 72 61 74 65 67 79 20 73 65 74 
       000001EB 20 74 6F 3A 20 25 73 0A 0A 00 
  2614                                          [SECTION .text]
  2615 000018C1                                 	GLOBAL	_cmd_set_strategy
  2616 000018C1                                 _cmd_set_strategy:
  2617 000018C1 55                              	PUSH	EBP
  2618 000018C2 89 E5                           	MOV	EBP,ESP
  2619 000018C4 53                              	PUSH	EBX
  2620 000018C5 83 EC 40                        	SUB	ESP,64
  2621 000018C8 8B 5D 0C                        	MOV	EBX,DWORD [12+EBP]
  2622 000018CB 53                              	PUSH	EBX
  2623 000018CC 68 003C0000                     	PUSH	3932160
  2624 000018D1 E8 [00000000]                   	CALL	_memman_set_strategy
  2625 000018D6 83 FB 01                        	CMP	EBX,1
  2626 000018D9 58                              	POP	EAX
  2627 000018DA B8 [0000010E]                   	MOV	EAX,LC25
  2628 000018DF 5A                              	POP	EDX
  2629 000018E0 74 19                           	JE	L542
  2630 000018E2 B8 [00000117]                   	MOV	EAX,LC24
  2631 000018E7 83 FB 01                        	CMP	EBX,1
  2632 000018EA 72 0F                           	JB	L542
  2633 000018EC B8 [00000121]                   	MOV	EAX,LC26
  2634 000018F1 83 FB 02                        	CMP	EBX,2
  2635 000018F4 74 05                           	JE	L542
  2636 000018F6 B8 [0000012E]                   	MOV	EAX,LC27
  2637 000018FB                                 L542:
  2638 000018FB 50                              	PUSH	EAX
  2639 000018FC 8D 5D BC                        	LEA	EBX,DWORD [-68+EBP]
  2640 000018FF 68 [000001CD]                   	PUSH	LC35
  2641 00001904 53                              	PUSH	EBX
  2642 00001905 E8 [00000000]                   	CALL	_sprintf
  2643 0000190A 53                              	PUSH	EBX
  2644 0000190B FF 75 08                        	PUSH	DWORD [8+EBP]
  2645 0000190E E8 FFFFEEEE                     	CALL	_cons_putstr0
  2646 00001913 8B 5D FC                        	MOV	EBX,DWORD [-4+EBP]
  2647 00001916 C9                              	LEAVE
  2648 00001917 C3                              	RET
  2649                                          [SECTION .data]
  2650 000001F5                                 LC36:
  2651 000001F5 3D 3D 3D 20 4D 65 6D 6F 72 79   	DB	"=== Memory Allocation Test ===",0x0A,0x00
       000001FF 20 41 6C 6C 6F 63 61 74 69 6F 
       00000209 6E 20 54 65 73 74 20 3D 3D 3D 
       00000213 0A 00 
  2652 00000215                                 LC37:
  2653 00000215 41 6C 6C 6F 63 20 25 64 3A 20   	DB	"Alloc %d: 0x%08X (%dKB)",0x0A,0x00
       0000021F 30 78 25 30 38 58 20 28 25 64 
       00000229 4B 42 29 0A 00 
  2654 0000022E                                 LC39:
  2655 0000022E 53 75 63 63 65 73 73 66 75 6C   	DB	"Successful allocations: %d/10",0x0A,0x00
       00000238 20 61 6C 6C 6F 63 61 74 69 6F 
       00000242 6E 73 3A 20 25 64 2F 31 30 0A 
       0000024C 00 
  2656 0000024D                                 LC40:
  2657 0000024D 41 6C 6C 20 74 65 73 74 20 6D   	DB	"All test memory freed.",0x0A,0x0A,0x00
       00000257 65 6D 6F 72 79 20 66 72 65 65 
       00000261 64 2E 0A 0A 00 
  2658 00000266                                 LC38:
  2659 00000266 41 6C 6C 6F 63 20 25 64 3A 20   	DB	"Alloc %d: FAILED",0x0A,0x00
       00000270 46 41 49 4C 45 44 0A 00 
  2660                                          [SECTION .text]
  2661 00001918                                 	GLOBAL	_cmd_memtest
  2662 00001918                                 _cmd_memtest:
  2663 00001918 55                              	PUSH	EBP
  2664 00001919 89 E5                           	MOV	EBP,ESP
  2665 0000191B 57                              	PUSH	EDI
  2666 0000191C 56                              	PUSH	ESI
  2667 0000191D 31 F6                           	XOR	ESI,ESI
  2668 0000191F 53                              	PUSH	EBX
  2669 00001920 81 EC 00000088                  	SUB	ESP,136
  2670 00001926 C7 85 FFFFFF70 00000000         	MOV	DWORD [-144+EBP],0
  2671 00001930 68 [000001F5]                   	PUSH	LC36
  2672 00001935 FF 75 08                        	PUSH	DWORD [8+EBP]
  2673 00001938 E8 FFFFEEC4                     	CALL	_cons_putstr0
  2674 0000193D 5F                              	POP	EDI
  2675 0000193E 58                              	POP	EAX
  2676 0000193F BF 00001000                     	MOV	EDI,4096
  2677 00001944 C7 85 FFFFFF6C 00000004         	MOV	DWORD [-148+EBP],4
  2678 0000194E                                 L555:
  2679 0000194E 57                              	PUSH	EDI
  2680 0000194F 68 003C0000                     	PUSH	3932160
  2681 00001954 E8 [00000000]                   	CALL	_memman_alloc
  2682 00001959 59                              	POP	ECX
  2683 0000195A 5B                              	POP	EBX
  2684 0000195B 85 C0                           	TEST	EAX,EAX
  2685 0000195D 89 84 B5 FFFFFF74               	MOV	DWORD [-140+EBP+ESI*4],EAX
  2686 00001964 0F 84 000000A2                  	JE	L553
  2687 0000196A FF B5 FFFFFF6C                  	PUSH	DWORD [-148+EBP]
  2688 00001970 50                              	PUSH	EAX
  2689 00001971 8D 5D A4                        	LEA	EBX,DWORD [-92+EBP]
  2690 00001974 8D 46 01                        	LEA	EAX,DWORD [1+ESI]
  2691 00001977 FF 85 FFFFFF70                  	INC	DWORD [-144+EBP]
  2692 0000197D 50                              	PUSH	EAX
  2693 0000197E 68 [00000215]                   	PUSH	LC37
  2694 00001983 53                              	PUSH	EBX
  2695 00001984 E8 [00000000]                   	CALL	_sprintf
  2696 00001989 53                              	PUSH	EBX
  2697 0000198A FF 75 08                        	PUSH	DWORD [8+EBP]
  2698 0000198D E8 FFFFEE6F                     	CALL	_cons_putstr0
  2699 00001992 83 C4 1C                        	ADD	ESP,28
  2700 00001995                                 L551:
  2701 00001995 46                              	INC	ESI
  2702 00001996 81 C7 00001000                  	ADD	EDI,4096
  2703 0000199C 83 85 FFFFFF6C 04               	ADD	DWORD [-148+EBP],4
  2704 000019A3 83 FE 09                        	CMP	ESI,9
  2705 000019A6 7E A6                           	JLE	L555
  2706 000019A8 FF B5 FFFFFF70                  	PUSH	DWORD [-144+EBP]
  2707 000019AE 68 [0000022E]                   	PUSH	LC39
  2708 000019B3 8D 5D A4                        	LEA	EBX,DWORD [-92+EBP]
  2709 000019B6 53                              	PUSH	EBX
  2710 000019B7 31 F6                           	XOR	ESI,ESI
  2711 000019B9 E8 [00000000]                   	CALL	_sprintf
  2712 000019BE 53                              	PUSH	EBX
  2713 000019BF FF 75 08                        	PUSH	DWORD [8+EBP]
  2714 000019C2 BB 00001000                     	MOV	EBX,4096
  2715 000019C7 E8 FFFFEE35                     	CALL	_cons_putstr0
  2716 000019CC 83 C4 14                        	ADD	ESP,20
  2717 000019CF                                 L561:
  2718 000019CF 8B 84 B5 FFFFFF74               	MOV	EAX,DWORD [-140+EBP+ESI*4]
  2719 000019D6 85 C0                           	TEST	EAX,EAX
  2720 000019D8 75 21                           	JNE	L566
  2721 000019DA                                 L558:
  2722 000019DA 46                              	INC	ESI
  2723 000019DB 81 C3 00001000                  	ADD	EBX,4096
  2724 000019E1 83 FE 09                        	CMP	ESI,9
  2725 000019E4 7E E9                           	JLE	L561
  2726 000019E6 68 [0000024D]                   	PUSH	LC40
  2727 000019EB FF 75 08                        	PUSH	DWORD [8+EBP]
  2728 000019EE E8 FFFFEE0E                     	CALL	_cons_putstr0
  2729 000019F3 8D 65 F4                        	LEA	ESP,DWORD [-12+EBP]
  2730 000019F6 5B                              	POP	EBX
  2731 000019F7 5E                              	POP	ESI
  2732 000019F8 5F                              	POP	EDI
  2733 000019F9 5D                              	POP	EBP
  2734 000019FA C3                              	RET
  2735 000019FB                                 L566:
  2736 000019FB 53                              	PUSH	EBX
  2737 000019FC 50                              	PUSH	EAX
  2738 000019FD 68 003C0000                     	PUSH	3932160
  2739 00001A02 E8 [00000000]                   	CALL	_memman_free
  2740 00001A07 83 C4 0C                        	ADD	ESP,12
  2741 00001A0A EB CE                           	JMP	L558
  2742 00001A0C                                 L553:
  2743 00001A0C 8D 46 01                        	LEA	EAX,DWORD [1+ESI]
  2744 00001A0F 8D 5D A4                        	LEA	EBX,DWORD [-92+EBP]
  2745 00001A12 50                              	PUSH	EAX
  2746 00001A13 68 [00000266]                   	PUSH	LC38
  2747 00001A18 53                              	PUSH	EBX
  2748 00001A19 E8 [00000000]                   	CALL	_sprintf
  2749 00001A1E 53                              	PUSH	EBX
  2750 00001A1F FF 75 08                        	PUSH	DWORD [8+EBP]
  2751 00001A22 E8 FFFFEDDA                     	CALL	_cons_putstr0
  2752 00001A27 83 C4 14                        	ADD	ESP,20
  2753 00001A2A E9 FFFFFF66                     	JMP	L551
  2754 00001A2F                                 	GLOBAL	_hrb_api_linewin
  2755 00001A2F                                 _hrb_api_linewin:
  2756 00001A2F 55                              	PUSH	EBP
  2757 00001A30 89 E5                           	MOV	EBP,ESP
  2758 00001A32 57                              	PUSH	EDI
  2759 00001A33 56                              	PUSH	ESI
  2760 00001A34 53                              	PUSH	EBX
  2761 00001A35 83 EC 0C                        	SUB	ESP,12
  2762 00001A38 8B 5D 0C                        	MOV	EBX,DWORD [12+EBP]
  2763 00001A3B 8B 45 14                        	MOV	EAX,DWORD [20+EBP]
  2764 00001A3E 89 D9                           	MOV	ECX,EBX
  2765 00001A40 8B 55 18                        	MOV	EDX,DWORD [24+EBP]
  2766 00001A43 C1 E1 0A                        	SAL	ECX,10
  2767 00001A46 89 D7                           	MOV	EDI,EDX
  2768 00001A48 89 4D F0                        	MOV	DWORD [-16+EBP],ECX
  2769 00001A4B 89 C6                           	MOV	ESI,EAX
  2770 00001A4D 8B 4D 10                        	MOV	ECX,DWORD [16+EBP]
  2771 00001A50 2B 7D 10                        	SUB	EDI,DWORD [16+EBP]
  2772 00001A53 C1 E1 0A                        	SAL	ECX,10
  2773 00001A56 29 DE                           	SUB	ESI,EBX
  2774 00001A58 89 4D EC                        	MOV	DWORD [-20+EBP],ECX
  2775 00001A5B 0F 88 000000A3                  	JS	L589
  2776 00001A61                                 L568:
  2777 00001A61 85 FF                           	TEST	EDI,EDI
  2778 00001A63 0F 88 00000094                  	JS	L590
  2779 00001A69                                 L569:
  2780 00001A69 39 FE                           	CMP	ESI,EDI
  2781 00001A6B 7C 62                           	JL	L570
  2782 00001A6D 8D 4E 01                        	LEA	ECX,DWORD [1+ESI]
  2783 00001A70 39 C3                           	CMP	EBX,EAX
  2784 00001A72 BE FFFFFC00                     	MOV	ESI,-1024
  2785 00001A77 7F 05                           	JG	L572
  2786 00001A79 BE 00000400                     	MOV	ESI,1024
  2787 00001A7E                                 L572:
  2788 00001A7E 39 55 10                        	CMP	DWORD [16+EBP],EDX
  2789 00001A81 7F 46                           	JG	L573
  2790 00001A83 2B 55 10                        	SUB	EDX,DWORD [16+EBP]
  2791 00001A86 42                              	INC	EDX
  2792 00001A87                                 L588:
  2793 00001A87 C1 E2 0A                        	SAL	EDX,10
  2794 00001A8A 89 D0                           	MOV	EAX,EDX
  2795 00001A8C 99                              	CDQ
  2796 00001A8D F7 F9                           	IDIV	ECX
  2797 00001A8F 89 C7                           	MOV	EDI,EAX
  2798 00001A91                                 L575:
  2799 00001A91 85 C9                           	TEST	ECX,ECX
  2800 00001A93 7E 2C                           	JLE	L586
  2801 00001A95 89 CB                           	MOV	EBX,ECX
  2802 00001A97                                 L584:
  2803 00001A97 8B 55 08                        	MOV	EDX,DWORD [8+EBP]
  2804 00001A9A 8B 45 EC                        	MOV	EAX,DWORD [-20+EBP]
  2805 00001A9D C1 F8 0A                        	SAR	EAX,10
  2806 00001AA0 8B 4D F0                        	MOV	ECX,DWORD [-16+EBP]
  2807 00001AA3 0F AF 42 04                     	IMUL	EAX,DWORD [4+EDX]
  2808 00001AA7 C1 F9 0A                        	SAR	ECX,10
  2809 00001AAA 89 4D E8                        	MOV	DWORD [-24+EBP],ECX
  2810 00001AAD 8B 0A                           	MOV	ECX,DWORD [EDX]
  2811 00001AAF 03 45 E8                        	ADD	EAX,DWORD [-24+EBP]
  2812 00001AB2 8A 55 1C                        	MOV	DL,BYTE [28+EBP]
  2813 00001AB5 88 14 08                        	MOV	BYTE [EAX+ECX*1],DL
  2814 00001AB8 01 75 F0                        	ADD	DWORD [-16+EBP],ESI
  2815 00001ABB 01 7D EC                        	ADD	DWORD [-20+EBP],EDI
  2816 00001ABE 4B                              	DEC	EBX
  2817 00001ABF 75 D6                           	JNE	L584
  2818 00001AC1                                 L586:
  2819 00001AC1 83 C4 0C                        	ADD	ESP,12
  2820 00001AC4 5B                              	POP	EBX
  2821 00001AC5 5E                              	POP	ESI
  2822 00001AC6 5F                              	POP	EDI
  2823 00001AC7 5D                              	POP	EBP
  2824 00001AC8 C3                              	RET
  2825 00001AC9                                 L573:
  2826 00001AC9 2B 55 10                        	SUB	EDX,DWORD [16+EBP]
  2827 00001ACC 4A                              	DEC	EDX
  2828 00001ACD EB B8                           	JMP	L588
  2829 00001ACF                                 L570:
  2830 00001ACF 8D 4F 01                        	LEA	ECX,DWORD [1+EDI]
  2831 00001AD2 39 55 10                        	CMP	DWORD [16+EBP],EDX
  2832 00001AD5 BF FFFFFC00                     	MOV	EDI,-1024
  2833 00001ADA 7F 05                           	JG	L577
  2834 00001ADC BF 00000400                     	MOV	EDI,1024
  2835 00001AE1                                 L577:
  2836 00001AE1 39 C3                           	CMP	EBX,EAX
  2837 00001AE3 7F 11                           	JG	L578
  2838 00001AE5 29 D8                           	SUB	EAX,EBX
  2839 00001AE7 8D 50 01                        	LEA	EDX,DWORD [1+EAX]
  2840 00001AEA                                 L587:
  2841 00001AEA C1 E2 0A                        	SAL	EDX,10
  2842 00001AED 89 D0                           	MOV	EAX,EDX
  2843 00001AEF 99                              	CDQ
  2844 00001AF0 F7 F9                           	IDIV	ECX
  2845 00001AF2 89 C6                           	MOV	ESI,EAX
  2846 00001AF4 EB 9B                           	JMP	L575
  2847 00001AF6                                 L578:
  2848 00001AF6 29 D8                           	SUB	EAX,EBX
  2849 00001AF8 8D 50 FF                        	LEA	EDX,DWORD [-1+EAX]
  2850 00001AFB EB ED                           	JMP	L587
  2851 00001AFD                                 L590:
  2852 00001AFD F7 DF                           	NEG	EDI
  2853 00001AFF E9 FFFFFF65                     	JMP	L569
  2854 00001B04                                 L589:
  2855 00001B04 F7 DE                           	NEG	ESI
  2856 00001B06 E9 FFFFFF56                     	JMP	L568
  2857                                          [SECTION .data]
  2858 00000278                                 LC41:
  2859 00000278 3D 3D 3D 20 50 72 6F 63 65 73   	DB	"=== Process List ===",0x0A,0x00
       00000282 73 20 4C 69 73 74 20 3D 3D 3D 
       0000028C 0A 00 
  2860 0000028E                                 LC42:
  2861 0000028E 49 44 20 20 53 74 61 74 65 20   	DB	"ID  State    Priority Level Time",0x0A,0x00
       00000298 20 20 20 50 72 69 6F 72 69 74 
       000002A2 79 20 4C 65 76 65 6C 20 54 69 
       000002AC 6D 65 0A 00 
  2862 000002B0                                 LC50:
  2863 000002B0 55 4E 4B 20 20 20 00            	DB	"UNK   ",0x00
  2864 000002B7                                 LC43:
  2865 000002B7 55 4E 55 53 45 44 00            	DB	"UNUSED",0x00
  2866 000002BE                                 LC51:
  2867 000002BE 25 32 64 20 20 25 73 20 20 20   	DB	"%2d  %s   %d        %d     %d",0x0A,0x00
       000002C8 25 64 20 20 20 20 20 20 20 20 
       000002D2 25 64 20 20 20 20 20 25 64 0A 
       000002DC 00 
  2868 000002DD                                 LC44:
  2869 000002DD 52 45 41 44 59 20 00            	DB	"READY ",0x00
  2870 000002E4                                 LC45:
  2871 000002E4 52 55 4E 20 20 20 00            	DB	"RUN   ",0x00
  2872 000002EB                                 LC46:
  2873 000002EB 42 4C 4F 43 4B 20 00            	DB	"BLOCK ",0x00
  2874 000002F2                                 LC47:
  2875 000002F2 53 4C 45 45 50 20 00            	DB	"SLEEP ",0x00
  2876 000002F9                                 LC48:
  2877 000002F9 57 41 49 54 20 20 00            	DB	"WAIT  ",0x00
  2878 00000300                                 LC49:
  2879 00000300 5A 4F 4D 42 49 45 00            	DB	"ZOMBIE",0x00
  2880                                          [SECTION .text]
  2881 00001B0B                                 	GLOBAL	_cmd_ps
  2882 00001B0B                                 _cmd_ps:
  2883 00001B0B 55                              	PUSH	EBP
  2884 00001B0C 89 E5                           	MOV	EBP,ESP
  2885 00001B0E 57                              	PUSH	EDI
  2886 00001B0F 56                              	PUSH	ESI
  2887 00001B10 31 F6                           	XOR	ESI,ESI
  2888 00001B12 53                              	PUSH	EBX
  2889 00001B13 83 EC 40                        	SUB	ESP,64
  2890 00001B16 8B 7D 08                        	MOV	EDI,DWORD [8+EBP]
  2891 00001B19 68 [00000278]                   	PUSH	LC41
  2892 00001B1E 57                              	PUSH	EDI
  2893 00001B1F E8 FFFFECDD                     	CALL	_cons_putstr0
  2894 00001B24 68 [0000028E]                   	PUSH	LC42
  2895 00001B29 57                              	PUSH	EDI
  2896 00001B2A E8 FFFFECD2                     	CALL	_cons_putstr0
  2897 00001B2F 83 C4 10                        	ADD	ESP,16
  2898 00001B32                                 L607:
  2899 00001B32 89 F0                           	MOV	EAX,ESI
  2900 00001B34 69 C0 000000E8                  	IMUL	EAX,EAX,232
  2901 00001B3A 03 05 [00000000]                	ADD	EAX,DWORD [_taskctl]
  2902 00001B40 05 00000FF8                     	ADD	EAX,4088
  2903 00001B45 83 78 04 00                     	CMP	DWORD [4+EAX],0
  2904 00001B49 74 41                           	JE	L594
  2905 00001B4B 8B 48 08                        	MOV	ECX,DWORD [8+EAX]
  2906 00001B4E BA [000002B0]                   	MOV	EDX,LC50
  2907 00001B53 83 F9 06                        	CMP	ECX,6
  2908 00001B56 77 0C                           	JA	L597
  2909 00001B58 FF 24 8D [00000308]             	JMP	DWORD [L606+ECX*4]
  2910                                          [SECTION .data]
  2911 00000307 00                              	ALIGNB	4
  2912 00000308                                 L606:
  2913 00000308 [00001B5F]                      	DD	L598
  2914 0000030C [00001BA7]                      	DD	L599
  2915 00000310 [00001BAE]                      	DD	L600
  2916 00000314 [00001BB5]                      	DD	L601
  2917 00000318 [00001BBC]                      	DD	L602
  2918 0000031C [00001BC3]                      	DD	L603
  2919 00000320 [00001BCA]                      	DD	L604
  2920                                          [SECTION .text]
  2921 00001B5F                                 L598:
  2922 00001B5F BA [000002B7]                   	MOV	EDX,LC43
  2923 00001B64                                 L597:
  2924 00001B64 FF B0 000000DC                  	PUSH	DWORD [220+EAX]
  2925 00001B6A FF 70 0C                        	PUSH	DWORD [12+EAX]
  2926 00001B6D FF 70 10                        	PUSH	DWORD [16+EAX]
  2927 00001B70 52                              	PUSH	EDX
  2928 00001B71 8D 5D B4                        	LEA	EBX,DWORD [-76+EBP]
  2929 00001B74 FF 70 20                        	PUSH	DWORD [32+EAX]
  2930 00001B77 68 [000002BE]                   	PUSH	LC51
  2931 00001B7C 53                              	PUSH	EBX
  2932 00001B7D E8 [00000000]                   	CALL	_sprintf
  2933 00001B82 53                              	PUSH	EBX
  2934 00001B83 57                              	PUSH	EDI
  2935 00001B84 E8 FFFFEC78                     	CALL	_cons_putstr0
  2936 00001B89 83 C4 24                        	ADD	ESP,36
  2937 00001B8C                                 L594:
  2938 00001B8C 46                              	INC	ESI
  2939 00001B8D 81 FE 000003E7                  	CMP	ESI,999
  2940 00001B93 7E 9D                           	JLE	L607
  2941 00001B95 6A 01                           	PUSH	1
  2942 00001B97 6A 0A                           	PUSH	10
  2943 00001B99 57                              	PUSH	EDI
  2944 00001B9A E8 FFFFEAF0                     	CALL	_cons_putchar
  2945 00001B9F 8D 65 F4                        	LEA	ESP,DWORD [-12+EBP]
  2946 00001BA2 5B                              	POP	EBX
  2947 00001BA3 5E                              	POP	ESI
  2948 00001BA4 5F                              	POP	EDI
  2949 00001BA5 5D                              	POP	EBP
  2950 00001BA6 C3                              	RET
  2951 00001BA7                                 L599:
  2952 00001BA7 BA [000002DD]                   	MOV	EDX,LC44
  2953 00001BAC EB B6                           	JMP	L597
  2954 00001BAE                                 L600:
  2955 00001BAE BA [000002E4]                   	MOV	EDX,LC45
  2956 00001BB3 EB AF                           	JMP	L597
  2957 00001BB5                                 L601:
  2958 00001BB5 BA [000002EB]                   	MOV	EDX,LC46
  2959 00001BBA EB A8                           	JMP	L597
  2960 00001BBC                                 L602:
  2961 00001BBC BA [000002F2]                   	MOV	EDX,LC47
  2962 00001BC1 EB A1                           	JMP	L597
  2963 00001BC3                                 L603:
  2964 00001BC3 BA [000002F9]                   	MOV	EDX,LC48
  2965 00001BC8 EB 9A                           	JMP	L597
  2966 00001BCA                                 L604:
  2967 00001BCA BA [00000300]                   	MOV	EDX,LC49
  2968 00001BCF EB 93                           	JMP	L597
  2969                                          [SECTION .data]
  2970 00000324                                 LC52:
  2971 00000324 3D 3D 3D 20 53 63 68 65 64 75   	DB	"=== Scheduler Info ===",0x0A,0x00
       0000032E 6C 65 72 20 49 6E 66 6F 20 3D 
       00000338 3D 3D 0A 00 
  2972 0000033C                                 LC53:
  2973 0000033C 43 75 72 72 65 6E 74 20 54 61   	DB	"Current Task ID: %d",0x0A,0x00
       00000346 73 6B 20 49 44 3A 20 25 64 0A 
       00000350 00 
  2974 00000351                                 LC54:
  2975 00000351 43 75 72 72 65 6E 74 20 50 72   	DB	"Current Priority: %d",0x0A,0x00
       0000035B 69 6F 72 69 74 79 3A 20 25 64 
       00000365 0A 00 
  2976 00000367                                 LC55:
  2977 00000367 54 69 6D 65 20 53 6C 69 63 65   	DB	"Time Slice: %d",0x0A,0x00
       00000371 3A 20 25 64 0A 00 
  2978 00000377                                 LC56:
  2979 00000377 52 65 6D 61 69 6E 69 6E 67 20   	DB	"Remaining Time: %d",0x0A,0x00
       00000381 54 69 6D 65 3A 20 25 64 0A 00 
  2980 0000038B                                 LC57:
  2981 0000038B 43 75 72 72 65 6E 74 20 4C 65   	DB	"Current Level: %d",0x0A,0x00
       00000395 76 65 6C 3A 20 25 64 0A 00 
  2982                                          [SECTION .text]
  2983 00001BD1                                 	GLOBAL	_cmd_sched_info
  2984 00001BD1                                 _cmd_sched_info:
  2985 00001BD1 55                              	PUSH	EBP
  2986 00001BD2 89 E5                           	MOV	EBP,ESP
  2987 00001BD4 57                              	PUSH	EDI
  2988 00001BD5 56                              	PUSH	ESI
  2989 00001BD6 53                              	PUSH	EBX
  2990 00001BD7 8D 5D B4                        	LEA	EBX,DWORD [-76+EBP]
  2991 00001BDA 83 EC 40                        	SUB	ESP,64
  2992 00001BDD 8B 75 08                        	MOV	ESI,DWORD [8+EBP]
  2993 00001BE0 E8 [00000000]                   	CALL	_task_now
  2994 00001BE5 89 C7                           	MOV	EDI,EAX
  2995 00001BE7 68 [00000324]                   	PUSH	LC52
  2996 00001BEC 56                              	PUSH	ESI
  2997 00001BED E8 FFFFEC0F                     	CALL	_cons_putstr0
  2998 00001BF2 FF 77 20                        	PUSH	DWORD [32+EDI]
  2999 00001BF5 68 [0000033C]                   	PUSH	LC53
  3000 00001BFA 53                              	PUSH	EBX
  3001 00001BFB E8 [00000000]                   	CALL	_sprintf
  3002 00001C00 53                              	PUSH	EBX
  3003 00001C01 56                              	PUSH	ESI
  3004 00001C02 E8 FFFFEBFA                     	CALL	_cons_putstr0
  3005 00001C07 FF 77 10                        	PUSH	DWORD [16+EDI]
  3006 00001C0A 68 [00000351]                   	PUSH	LC54
  3007 00001C0F 53                              	PUSH	EBX
  3008 00001C10 E8 [00000000]                   	CALL	_sprintf
  3009 00001C15 83 C4 28                        	ADD	ESP,40
  3010 00001C18 53                              	PUSH	EBX
  3011 00001C19 56                              	PUSH	ESI
  3012 00001C1A E8 FFFFEBE2                     	CALL	_cons_putstr0
  3013 00001C1F FF 77 18                        	PUSH	DWORD [24+EDI]
  3014 00001C22 68 [00000367]                   	PUSH	LC55
  3015 00001C27 53                              	PUSH	EBX
  3016 00001C28 E8 [00000000]                   	CALL	_sprintf
  3017 00001C2D 53                              	PUSH	EBX
  3018 00001C2E 56                              	PUSH	ESI
  3019 00001C2F E8 FFFFEBCD                     	CALL	_cons_putstr0
  3020 00001C34 FF 77 1C                        	PUSH	DWORD [28+EDI]
  3021 00001C37 68 [00000377]                   	PUSH	LC56
  3022 00001C3C 53                              	PUSH	EBX
  3023 00001C3D E8 [00000000]                   	CALL	_sprintf
  3024 00001C42 83 C4 28                        	ADD	ESP,40
  3025 00001C45 53                              	PUSH	EBX
  3026 00001C46 56                              	PUSH	ESI
  3027 00001C47 E8 FFFFEBB5                     	CALL	_cons_putstr0
  3028 00001C4C A1 [00000000]                   	MOV	EAX,DWORD [_taskctl]
  3029 00001C51 FF 30                           	PUSH	DWORD [EAX]
  3030 00001C53 68 [0000038B]                   	PUSH	LC57
  3031 00001C58 53                              	PUSH	EBX
  3032 00001C59 E8 [00000000]                   	CALL	_sprintf
  3033 00001C5E 53                              	PUSH	EBX
  3034 00001C5F 56                              	PUSH	ESI
  3035 00001C60 E8 FFFFEB9C                     	CALL	_cons_putstr0
  3036 00001C65 6A 01                           	PUSH	1
  3037 00001C67 6A 0A                           	PUSH	10
  3038 00001C69 56                              	PUSH	ESI
  3039 00001C6A E8 FFFFEA20                     	CALL	_cons_putchar
  3040 00001C6F 8D 65 F4                        	LEA	ESP,DWORD [-12+EBP]
  3041 00001C72 5B                              	POP	EBX
  3042 00001C73 5E                              	POP	ESI
  3043 00001C74 5F                              	POP	EDI
  3044 00001C75 5D                              	POP	EBP
  3045 00001C76 C3                              	RET
  3046                                          [SECTION .data]
  3047 0000039E                                 LC58:
  3048 0000039E 3D 3D 3D 20 49 50 43 20 49 6E   	DB	"=== IPC Info ===",0x0A,0x00
       000003A8 66 6F 20 3D 3D 3D 0A 00 
  3049 000003B0                                 LC59:
  3050 000003B0 41 63 74 69 76 65 20 53 65 6D   	DB	"Active Semaphores: %d/%d",0x0A,0x00
       000003BA 61 70 68 6F 72 65 73 3A 20 25 
       000003C4 64 2F 25 64 0A 00 
  3051 000003CA                                 LC60:
  3052 000003CA 41 63 74 69 76 65 20 4D 65 73   	DB	"Active Message Queues: %d/%d",0x0A,0x00
       000003D4 73 61 67 65 20 51 75 65 75 65 
       000003DE 73 3A 20 25 64 2F 25 64 0A 00 
  3053 000003E8                                 LC61:
  3054 000003E8 0A 53 65 6D 61 70 68 6F 72 65   	DB	0x0A,"Semaphores:",0x0A,0x00
       000003F2 73 3A 0A 00 
  3055 000003F6                                 LC62:
  3056 000003F6 4E 61 6D 65 20 20 20 20 20 20   	DB	"Name            Value Waiting",0x0A,0x00
       00000400 20 20 20 20 20 20 56 61 6C 75 
       0000040A 65 20 57 61 69 74 69 6E 67 0A 
       00000414 00 
  3057 00000415                                 LC64:
  3058 00000415 0A 4D 65 73 73 61 67 65 20 51   	DB	0x0A,"Message Queues:",0x0A,0x00
       0000041F 75 65 75 65 73 3A 0A 00 
  3059 00000427                                 LC65:
  3060 00000427 4E 61 6D 65 20 20 20 20 20 20   	DB	"Name            Count  Max Waiting",0x0A,0x00
       00000431 20 20 20 20 20 20 43 6F 75 6E 
       0000043B 74 20 20 4D 61 78 20 57 61 69 
       00000445 74 69 6E 67 0A 00 
  3061 0000044B                                 LC66:
  3062 0000044B 25 2D 31 35 73 20 25 35 64 20   	DB	"%-15s %5d %4d %7d",0x0A,0x00
       00000455 25 34 64 20 25 37 64 0A 00 
  3063 0000045E                                 LC63:
  3064 0000045E 25 2D 31 35 73 20 25 35 64 20   	DB	"%-15s %5d %7d",0x0A,0x00
       00000468 25 37 64 0A 00 
  3065                                          [SECTION .text]
  3066 00001C77                                 	GLOBAL	_cmd_ipc_info
  3067 00001C77                                 _cmd_ipc_info:
  3068 00001C77 55                              	PUSH	EBP
  3069 00001C78 31 C0                           	XOR	EAX,EAX
  3070 00001C7A 89 E5                           	MOV	EBP,ESP
  3071 00001C7C 57                              	PUSH	EDI
  3072 00001C7D 56                              	PUSH	ESI
  3073 00001C7E 31 FF                           	XOR	EDI,EDI
  3074 00001C80 53                              	PUSH	EBX
  3075 00001C81 BE 00000063                     	MOV	ESI,99
  3076 00001C86 83 EC 44                        	SUB	ESP,68
  3077 00001C89 8B 15 [00000000]                	MOV	EDX,DWORD [_taskctl]
  3078 00001C8F C7 45 B0 00000000               	MOV	DWORD [-80+EBP],0
  3079 00001C96                                 L617:
  3080 00001C96 83 BC 02 00039A40 00            	CMP	DWORD [236096+EDX+EAX*1],0
  3081 00001C9E 74 01                           	JE	L614
  3082 00001CA0 47                              	INC	EDI
  3083 00001CA1                                 L614:
  3084 00001CA1 05 000001AC                     	ADD	EAX,428
  3085 00001CA6 4E                              	DEC	ESI
  3086 00001CA7 79 ED                           	JNS	L617
  3087 00001CA9 8D 82 0004416C                  	LEA	EAX,DWORD [278892+EDX]
  3088 00001CAF BE 00000031                     	MOV	ESI,49
  3089 00001CB4                                 L623:
  3090 00001CB4 83 38 00                        	CMP	DWORD [EAX],0
  3091 00001CB7 74 03                           	JE	L620
  3092 00001CB9 FF 45 B0                        	INC	DWORD [-80+EBP]
  3093 00001CBC                                 L620:
  3094 00001CBC 05 000001B8                     	ADD	EAX,440
  3095 00001CC1 4E                              	DEC	ESI
  3096 00001CC2 79 F0                           	JNS	L623
  3097 00001CC4 68 [0000039E]                   	PUSH	LC58
  3098 00001CC9 8D 5D B4                        	LEA	EBX,DWORD [-76+EBP]
  3099 00001CCC FF 75 08                        	PUSH	DWORD [8+EBP]
  3100 00001CCF E8 FFFFEB2D                     	CALL	_cons_putstr0
  3101 00001CD4 6A 64                           	PUSH	100
  3102 00001CD6 57                              	PUSH	EDI
  3103 00001CD7 68 [000003B0]                   	PUSH	LC59
  3104 00001CDC 53                              	PUSH	EBX
  3105 00001CDD E8 [00000000]                   	CALL	_sprintf
  3106 00001CE2 53                              	PUSH	EBX
  3107 00001CE3 FF 75 08                        	PUSH	DWORD [8+EBP]
  3108 00001CE6 E8 FFFFEB16                     	CALL	_cons_putstr0
  3109 00001CEB 83 C4 20                        	ADD	ESP,32
  3110 00001CEE 6A 32                           	PUSH	50
  3111 00001CF0 FF 75 B0                        	PUSH	DWORD [-80+EBP]
  3112 00001CF3 68 [000003CA]                   	PUSH	LC60
  3113 00001CF8 53                              	PUSH	EBX
  3114 00001CF9 E8 [00000000]                   	CALL	_sprintf
  3115 00001CFE 53                              	PUSH	EBX
  3116 00001CFF FF 75 08                        	PUSH	DWORD [8+EBP]
  3117 00001D02 E8 FFFFEAFA                     	CALL	_cons_putstr0
  3118 00001D07 83 C4 18                        	ADD	ESP,24
  3119 00001D0A 85 FF                           	TEST	EDI,EDI
  3120 00001D0C 7E 42                           	JLE	L624
  3121 00001D0E 68 [000003E8]                   	PUSH	LC61
  3122 00001D13 31 FF                           	XOR	EDI,EDI
  3123 00001D15 FF 75 08                        	PUSH	DWORD [8+EBP]
  3124 00001D18 BE 00000063                     	MOV	ESI,99
  3125 00001D1D E8 FFFFEADF                     	CALL	_cons_putstr0
  3126 00001D22 68 [000003F6]                   	PUSH	LC62
  3127 00001D27 FF 75 08                        	PUSH	DWORD [8+EBP]
  3128 00001D2A E8 FFFFEAD2                     	CALL	_cons_putstr0
  3129 00001D2F 83 C4 10                        	ADD	ESP,16
  3130 00001D32                                 L630:
  3131 00001D32 89 F8                           	MOV	EAX,EDI
  3132 00001D34 03 05 [00000000]                	ADD	EAX,DWORD [_taskctl]
  3133 00001D3A 83 B8 00039A40 00               	CMP	DWORD [236096+EAX],0
  3134 00001D41 0F 85 00000095                  	JNE	L644
  3135 00001D47                                 L627:
  3136 00001D47 81 C7 000001AC                  	ADD	EDI,428
  3137 00001D4D 4E                              	DEC	ESI
  3138 00001D4E 79 E2                           	JNS	L630
  3139 00001D50                                 L624:
  3140 00001D50 83 7D B0 00                     	CMP	DWORD [-80+EBP],0
  3141 00001D54 7E 3E                           	JLE	L631
  3142 00001D56 68 [00000415]                   	PUSH	LC64
  3143 00001D5B 31 FF                           	XOR	EDI,EDI
  3144 00001D5D FF 75 08                        	PUSH	DWORD [8+EBP]
  3145 00001D60 BE 00000031                     	MOV	ESI,49
  3146 00001D65 E8 FFFFEA97                     	CALL	_cons_putstr0
  3147 00001D6A 68 [00000427]                   	PUSH	LC65
  3148 00001D6F FF 75 08                        	PUSH	DWORD [8+EBP]
  3149 00001D72 E8 FFFFEA8A                     	CALL	_cons_putstr0
  3150 00001D77 83 C4 10                        	ADD	ESP,16
  3151 00001D7A                                 L637:
  3152 00001D7A 89 F8                           	MOV	EAX,EDI
  3153 00001D7C 03 05 [00000000]                	ADD	EAX,DWORD [_taskctl]
  3154 00001D82 83 B8 0004416C 00               	CMP	DWORD [278892+EAX],0
  3155 00001D89 75 1D                           	JNE	L645
  3156 00001D8B                                 L634:
  3157 00001D8B 81 C7 000001B8                  	ADD	EDI,440
  3158 00001D91 4E                              	DEC	ESI
  3159 00001D92 79 E6                           	JNS	L637
  3160 00001D94                                 L631:
  3161 00001D94 6A 01                           	PUSH	1
  3162 00001D96 6A 0A                           	PUSH	10
  3163 00001D98 FF 75 08                        	PUSH	DWORD [8+EBP]
  3164 00001D9B E8 FFFFE8EF                     	CALL	_cons_putchar
  3165 00001DA0 8D 65 F4                        	LEA	ESP,DWORD [-12+EBP]
  3166 00001DA3 5B                              	POP	EBX
  3167 00001DA4 5E                              	POP	ESI
  3168 00001DA5 5F                              	POP	EDI
  3169 00001DA6 5D                              	POP	EBP
  3170 00001DA7 C3                              	RET
  3171 00001DA8                                 L645:
  3172 00001DA8 FF B0 00044310                  	PUSH	DWORD [279312+EAX]
  3173 00001DAE FF B0 00044170                  	PUSH	DWORD [278896+EAX]
  3174 00001DB4 FF B0 00044174                  	PUSH	DWORD [278900+EAX]
  3175 00001DBA 05 00044314                     	ADD	EAX,279316
  3176 00001DBF 8D 5D B4                        	LEA	EBX,DWORD [-76+EBP]
  3177 00001DC2 50                              	PUSH	EAX
  3178 00001DC3 68 [0000044B]                   	PUSH	LC66
  3179 00001DC8 53                              	PUSH	EBX
  3180 00001DC9 E8 [00000000]                   	CALL	_sprintf
  3181 00001DCE 53                              	PUSH	EBX
  3182 00001DCF FF 75 08                        	PUSH	DWORD [8+EBP]
  3183 00001DD2 E8 FFFFEA2A                     	CALL	_cons_putstr0
  3184 00001DD7 83 C4 20                        	ADD	ESP,32
  3185 00001DDA EB AF                           	JMP	L634
  3186 00001DDC                                 L644:
  3187 00001DDC FF B0 00039BD4                  	PUSH	DWORD [236500+EAX]
  3188 00001DE2 FF B0 00039A3C                  	PUSH	DWORD [236092+EAX]
  3189 00001DE8 05 00039BD8                     	ADD	EAX,236504
  3190 00001DED 8D 5D B4                        	LEA	EBX,DWORD [-76+EBP]
  3191 00001DF0 50                              	PUSH	EAX
  3192 00001DF1 68 [0000045E]                   	PUSH	LC63
  3193 00001DF6 53                              	PUSH	EBX
  3194 00001DF7 E8 [00000000]                   	CALL	_sprintf
  3195 00001DFC 53                              	PUSH	EBX
  3196 00001DFD FF 75 08                        	PUSH	DWORD [8+EBP]
  3197 00001E00 E8 FFFFE9FC                     	CALL	_cons_putstr0
  3198 00001E05 83 C4 1C                        	ADD	ESP,28
  3199 00001E08 E9 FFFFFF3A                     	JMP	L627
  3200                                          [SECTION .data]
  3201 0000046D                                 LC67:
  3202 0000046D 70 72 69 6F 72 69 74 79 20 25   	DB	"priority %d %d",0x00
       00000477 64 20 25 64 00 
  3203 0000047C                                 LC71:
  3204 0000047C 55 73 61 67 65 3A 20 70 72 69   	DB	"Usage: priority <task_id> <priority>",0x0A,0x00
       00000486 6F 72 69 74 79 20 3C 74 61 73 
       00000490 6B 5F 69 64 3E 20 3C 70 72 69 
       0000049A 6F 72 69 74 79 3E 0A 00 
  3205 000004A2                                 LC69:
  3206 000004A2 54 61 73 6B 20 6E 6F 74 20 66   	DB	"Task not found",0x0A,0x00
       000004AC 6F 75 6E 64 0A 00 
  3207 000004B2                                 LC68:
  3208 000004B2 54 61 73 6B 20 25 64 20 70 72   	DB	"Task %d priority set to %d",0x0A,0x00
       000004BC 69 6F 72 69 74 79 20 73 65 74 
       000004C6 20 74 6F 20 25 64 0A 00 
  3209 000004CE                                 LC70:
  3210 000004CE 49 6E 76 61 6C 69 64 20 74 61   	DB	"Invalid task ID or priority (1-%d, %d-%d)",0x0A,0x00
       000004D8 73 6B 20 49 44 20 6F 72 20 70 
       000004E2 72 69 6F 72 69 74 79 20 28 31 
       000004EC 2D 25 64 2C 20 25 64 2D 25 64 
       000004F6 29 0A 00 
  3211                                          [SECTION .text]
  3212 00001E0D                                 	GLOBAL	_cmd_set_priority
  3213 00001E0D                                 _cmd_set_priority:
  3214 00001E0D 55                              	PUSH	EBP
  3215 00001E0E 89 E5                           	MOV	EBP,ESP
  3216 00001E10 56                              	PUSH	ESI
  3217 00001E11 53                              	PUSH	EBX
  3218 00001E12 83 EC 48                        	SUB	ESP,72
  3219 00001E15 8D 45 B4                        	LEA	EAX,DWORD [-76+EBP]
  3220 00001E18 8B 75 08                        	MOV	ESI,DWORD [8+EBP]
  3221 00001E1B 50                              	PUSH	EAX
  3222 00001E1C 8D 45 B0                        	LEA	EAX,DWORD [-80+EBP]
  3223 00001E1F 50                              	PUSH	EAX
  3224 00001E20 68 [0000046D]                   	PUSH	LC67
  3225 00001E25 FF 75 0C                        	PUSH	DWORD [12+EBP]
  3226 00001E28 E8 FFFFE202                     	CALL	_parse_two_ints
  3227 00001E2D 83 C4 10                        	ADD	ESP,16
  3228 00001E30 83 F8 02                        	CMP	EAX,2
  3229 00001E33 74 14                           	JE	L661
  3230 00001E35 68 [0000047C]                   	PUSH	LC71
  3231 00001E3A                                 L660:
  3232 00001E3A 56                              	PUSH	ESI
  3233 00001E3B E8 FFFFE9C1                     	CALL	_cons_putstr0
  3234 00001E40 58                              	POP	EAX
  3235 00001E41 5A                              	POP	EDX
  3236 00001E42                                 L646:
  3237 00001E42 8D 65 F8                        	LEA	ESP,DWORD [-8+EBP]
  3238 00001E45 5B                              	POP	EBX
  3239 00001E46 5E                              	POP	ESI
  3240 00001E47 5D                              	POP	EBP
  3241 00001E48 C3                              	RET
  3242 00001E49                                 L661:
  3243 00001E49 8B 4D B0                        	MOV	ECX,DWORD [-80+EBP]
  3244 00001E4C 85 C9                           	TEST	ECX,ECX
  3245 00001E4E 7E 6E                           	JLE	L648
  3246 00001E50 A1 [00000000]                   	MOV	EAX,DWORD [_taskctl]
  3247 00001E55 3B 88 00039A38                  	CMP	ECX,DWORD [236088+EAX]
  3248 00001E5B 7D 61                           	JGE	L648
  3249 00001E5D 8B 55 B4                        	MOV	EDX,DWORD [-76+EBP]
  3250 00001E60 85 D2                           	TEST	EDX,EDX
  3251 00001E62 7E 5A                           	JLE	L648
  3252 00001E64 83 FA 0A                        	CMP	EDX,10
  3253 00001E67 7F 55                           	JG	L648
  3254 00001E69 8D 98 00038958                  	LEA	EBX,DWORD [231768+EAX]
  3255 00001E6F                                 L654:
  3256 00001E6F 89 C2                           	MOV	EDX,EAX
  3257 00001E71 39 88 00001018                  	CMP	DWORD [4120+EAX],ECX
  3258 00001E77 74 11                           	JE	L662
  3259 00001E79                                 L651:
  3260 00001E79 8D 82 000000E8                  	LEA	EAX,DWORD [232+EDX]
  3261 00001E7F 39 D8                           	CMP	EAX,EBX
  3262 00001E81 7E EC                           	JLE	L654
  3263 00001E83 68 [000004A2]                   	PUSH	LC69
  3264 00001E88 EB B0                           	JMP	L660
  3265 00001E8A                                 L662:
  3266 00001E8A 83 B8 00000FFC 00               	CMP	DWORD [4092+EAX],0
  3267 00001E91 74 E6                           	JE	L651
  3268 00001E93 FF 75 B4                        	PUSH	DWORD [-76+EBP]
  3269 00001E96 05 00000FF8                     	ADD	EAX,4088
  3270 00001E9B 8D 5D B8                        	LEA	EBX,DWORD [-72+EBP]
  3271 00001E9E 50                              	PUSH	EAX
  3272 00001E9F E8 [00000000]                   	CALL	_task_set_priority
  3273 00001EA4 FF 75 B4                        	PUSH	DWORD [-76+EBP]
  3274 00001EA7 FF 75 B0                        	PUSH	DWORD [-80+EBP]
  3275 00001EAA 68 [000004B2]                   	PUSH	LC68
  3276 00001EAF 53                              	PUSH	EBX
  3277 00001EB0 E8 [00000000]                   	CALL	_sprintf
  3278 00001EB5 53                              	PUSH	EBX
  3279 00001EB6 56                              	PUSH	ESI
  3280 00001EB7 E8 FFFFE945                     	CALL	_cons_putstr0
  3281 00001EBC EB 84                           	JMP	L646
  3282 00001EBE                                 L648:
  3283 00001EBE 6A 0A                           	PUSH	10
  3284 00001EC0 A1 [00000000]                   	MOV	EAX,DWORD [_taskctl]
  3285 00001EC5 6A 01                           	PUSH	1
  3286 00001EC7 8D 5D B8                        	LEA	EBX,DWORD [-72+EBP]
  3287 00001ECA 8B 80 00039A38                  	MOV	EAX,DWORD [236088+EAX]
  3288 00001ED0 48                              	DEC	EAX
  3289 00001ED1 50                              	PUSH	EAX
  3290 00001ED2 68 [000004CE]                   	PUSH	LC70
  3291 00001ED7 53                              	PUSH	EBX
  3292 00001ED8 E8 [00000000]                   	CALL	_sprintf
  3293 00001EDD 53                              	PUSH	EBX
  3294 00001EDE 56                              	PUSH	ESI
  3295 00001EDF E8 FFFFE91D                     	CALL	_cons_putstr0
  3296 00001EE4 83 C4 1C                        	ADD	ESP,28
  3297 00001EE7 E9 FFFFFF56                     	JMP	L646
  3298                                          [SECTION .data]
  3299 000004F9                                 LC72:
  3300 000004F9 63 72 65 61 74 65 00            	DB	"create",0x00
  3301 00000500                                 LC76:
  3302 00000500 77 61 69 74 00                  	DB	"wait",0x00
  3303 00000505                                 LC80:
  3304 00000505 53 65 6D 61 70 68 6F 72 65 20   	DB	"Semaphore not found",0x0A,0x00
       0000050F 6E 6F 74 20 66 6F 75 6E 64 0A 
       00000519 00 
  3305 0000051A                                 LC77:
  3306 0000051A 61 63 71 75 69 72 65 64 00      	DB	"acquired",0x00
  3307 00000523                                 LC78:
  3308 00000523 66 61 69 6C 65 64 00            	DB	"failed",0x00
  3309 0000052A                                 LC79:
  3310 0000052A 57 61 69 74 20 6F 6E 20 27 25   	DB	"Wait on '%s': %s",0x0A,0x00
       00000534 73 27 3A 20 25 73 0A 00 
  3311 0000053C                                 LC81:
  3312 0000053C 73 69 67 6E 61 6C 00            	DB	"signal",0x00
  3313 00000543                                 LC82:
  3314 00000543 53 69 67 6E 61 6C 65 64 20 27   	DB	"Signaled '%s'",0x0A,0x00
       0000054D 25 73 27 0A 00 
  3315 00000552                                 LC83:
  3316 00000552 64 65 73 74 72 6F 79 00         	DB	"destroy",0x00
  3317 0000055A                                 LC84:
  3318 0000055A 53 65 6D 61 70 68 6F 72 65 20   	DB	"Semaphore '%s' destroyed",0x0A,0x00
       00000564 27 25 73 27 20 64 65 73 74 72 
       0000056E 6F 79 65 64 0A 00 
  3319 00000574                                 LC85:
  3320 00000574 55 6E 6B 6E 6F 77 6E 20 6F 70   	DB	"Unknown operation. Available: create, wait, signal, destroy",0x0A,0x00
       0000057E 65 72 61 74 69 6F 6E 2E 20 41 
       00000588 76 61 69 6C 61 62 6C 65 3A 20 
       00000592 63 72 65 61 74 65 2C 20 77 61 
       0000059C 69 74 2C 20 73 69 67 6E 61 6C 
       000005A6 2C 20 64 65 73 74 72 6F 79 0A 
       000005B0 00 
  3321 000005B1                                 LC75:
  3322 000005B1 55 73 61 67 65 3A 20 73 65 6D   	DB	"Usage: sem create <name> <value>",0x0A,0x00
       000005BB 20 63 72 65 61 74 65 20 3C 6E 
       000005C5 61 6D 65 3E 20 3C 76 61 6C 75 
       000005CF 65 3E 0A 00 
  3323 000005D3                                 LC73:
  3324 000005D3 53 65 6D 61 70 68 6F 72 65 20   	DB	"Semaphore '%s' created with value %d",0x0A,0x00
       000005DD 27 25 73 27 20 63 72 65 61 74 
       000005E7 65 64 20 77 69 74 68 20 76 61 
       000005F1 6C 75 65 20 25 64 0A 00 
  3325 000005F9                                 LC74:
  3326 000005F9 46 61 69 6C 65 64 20 74 6F 20   	DB	"Failed to create semaphore",0x0A,0x00
       00000603 63 72 65 61 74 65 20 73 65 6D 
       0000060D 61 70 68 6F 72 65 0A 00 
  3327 00000615                                 LC86:
  3328 00000615 20 20 20 20 20 20 20 73 65 6D   	DB	"       sem wait <name>",0x0A,0x00
       0000061F 20 77 61 69 74 20 3C 6E 61 6D 
       00000629 65 3E 0A 00 
  3329 0000062D                                 LC87:
  3330 0000062D 20 20 20 20 20 20 20 73 65 6D   	DB	"       sem signal <name>",0x0A,0x00
       00000637 20 73 69 67 6E 61 6C 20 3C 6E 
       00000641 61 6D 65 3E 0A 00 
  3331                                          [SECTION .text]
  3332 00001EEC                                 	GLOBAL	_cmd_semaphore
  3333 00001EEC                                 _cmd_semaphore:
  3334 00001EEC 55                              	PUSH	EBP
  3335 00001EED 89 E5                           	MOV	EBP,ESP
  3336 00001EEF 57                              	PUSH	EDI
  3337 00001EF0 56                              	PUSH	ESI
  3338 00001EF1 53                              	PUSH	EBX
  3339 00001EF2 8D 45 D4                        	LEA	EAX,DWORD [-44+EBP]
  3340 00001EF5 83 EC 64                        	SUB	ESP,100
  3341 00001EF8 8D 5D E4                        	LEA	EBX,DWORD [-28+EBP]
  3342 00001EFB 50                              	PUSH	EAX
  3343 00001EFC 53                              	PUSH	EBX
  3344 00001EFD FF 75 0C                        	PUSH	DWORD [12+EBP]
  3345 00001F00 E8 FFFFE1F7                     	CALL	_parse_command_words
  3346 00001F05 83 C4 0C                        	ADD	ESP,12
  3347 00001F08 48                              	DEC	EAX
  3348 00001F09 0F 8E 0000020A                  	JLE	L664
  3349 00001F0F FC                              	CLD
  3350 00001F10 89 DE                           	MOV	ESI,EBX
  3351 00001F12 BF [000004F9]                   	MOV	EDI,LC72
  3352 00001F17 B9 00000007                     	MOV	ECX,7
  3353 00001F1C F3                              	REPE
  3354 00001F1D A6                              	CMPSB
  3355 00001F1E 0F 84 0000018D                  	JE	L712
  3356 00001F24 FC                              	CLD
  3357 00001F25 89 DE                           	MOV	ESI,EBX
  3358 00001F27 BF [00000500]                   	MOV	EDI,LC76
  3359 00001F2C B9 00000005                     	MOV	ECX,5
  3360 00001F31 F3                              	REPE
  3361 00001F32 A6                              	CMPSB
  3362 00001F33 0F 85 0000008C                  	JNE	L671
  3363 00001F39 31 F6                           	XOR	ESI,ESI
  3364 00001F3B 31 DB                           	XOR	EBX,EBX
  3365 00001F3D                                 L679:
  3366 00001F3D 89 DA                           	MOV	EDX,EBX
  3367 00001F3F 03 15 [00000000]                	ADD	EDX,DWORD [_taskctl]
  3368 00001F45 83 BA 00039A40 00               	CMP	DWORD [236096+EDX],0
  3369 00001F4C 75 23                           	JNE	L713
  3370 00001F4E                                 L674:
  3371 00001F4E 46                              	INC	ESI
  3372 00001F4F 81 C3 000001AC                  	ADD	EBX,428
  3373 00001F55 83 FE 63                        	CMP	ESI,99
  3374 00001F58 7E E3                           	JLE	L679
  3375 00001F5A                                 L711:
  3376 00001F5A 68 [00000505]                   	PUSH	LC80
  3377 00001F5F                                 L707:
  3378 00001F5F FF 75 08                        	PUSH	DWORD [8+EBP]
  3379 00001F62 E8 FFFFE89A                     	CALL	_cons_putstr0
  3380 00001F67 59                              	POP	ECX
  3381 00001F68 5B                              	POP	EBX
  3382 00001F69                                 L663:
  3383 00001F69 8D 65 F4                        	LEA	ESP,DWORD [-12+EBP]
  3384 00001F6C 5B                              	POP	EBX
  3385 00001F6D 5E                              	POP	ESI
  3386 00001F6E 5F                              	POP	EDI
  3387 00001F6F 5D                              	POP	EBP
  3388 00001F70 C3                              	RET
  3389 00001F71                                 L713:
  3390 00001F71 8D 45 D4                        	LEA	EAX,DWORD [-44+EBP]
  3391 00001F74 50                              	PUSH	EAX
  3392 00001F75 8D 82 00039BD8                  	LEA	EAX,DWORD [236504+EDX]
  3393 00001F7B 50                              	PUSH	EAX
  3394 00001F7C E8 [00000000]                   	CALL	_strcmp
  3395 00001F81 5F                              	POP	EDI
  3396 00001F82 5A                              	POP	EDX
  3397 00001F83 85 C0                           	TEST	EAX,EAX
  3398 00001F85 75 C7                           	JNE	L674
  3399 00001F87 03 1D [00000000]                	ADD	EBX,DWORD [_taskctl]
  3400 00001F8D 8D 83 00039A3C                  	LEA	EAX,DWORD [236092+EBX]
  3401 00001F93 50                              	PUSH	EAX
  3402 00001F94 E8 [00000000]                   	CALL	_semaphore_wait
  3403 00001F99 BA [0000051A]                   	MOV	EDX,LC77
  3404 00001F9E 85 C0                           	TEST	EAX,EAX
  3405 00001FA0 74 05                           	JE	L678
  3406 00001FA2 BA [00000523]                   	MOV	EDX,LC78
  3407 00001FA7                                 L678:
  3408 00001FA7 52                              	PUSH	EDX
  3409 00001FA8 8D 45 D4                        	LEA	EAX,DWORD [-44+EBP]
  3410 00001FAB 50                              	PUSH	EAX
  3411 00001FAC 8D 5D 94                        	LEA	EBX,DWORD [-108+EBP]
  3412 00001FAF 68 [0000052A]                   	PUSH	LC79
  3413 00001FB4 53                              	PUSH	EBX
  3414 00001FB5 E8 [00000000]                   	CALL	_sprintf
  3415 00001FBA                                 L708:
  3416 00001FBA 53                              	PUSH	EBX
  3417 00001FBB FF 75 08                        	PUSH	DWORD [8+EBP]
  3418 00001FBE E8 FFFFE83E                     	CALL	_cons_putstr0
  3419 00001FC3 EB A4                           	JMP	L663
  3420 00001FC5                                 L671:
  3421 00001FC5 FC                              	CLD
  3422 00001FC6 89 DE                           	MOV	ESI,EBX
  3423 00001FC8 BF [0000053C]                   	MOV	EDI,LC81
  3424 00001FCD B9 00000007                     	MOV	ECX,7
  3425 00001FD2 F3                              	REPE
  3426 00001FD3 A6                              	CMPSB
  3427 00001FD4 75 66                           	JNE	L681
  3428 00001FD6 31 FF                           	XOR	EDI,EDI
  3429 00001FD8 31 DB                           	XOR	EBX,EBX
  3430 00001FDA                                 L687:
  3431 00001FDA 89 D8                           	MOV	EAX,EBX
  3432 00001FDC 89 DE                           	MOV	ESI,EBX
  3433 00001FDE 03 05 [00000000]                	ADD	EAX,DWORD [_taskctl]
  3434 00001FE4 83 B8 00039A40 00               	CMP	DWORD [236096+EAX],0
  3435 00001FEB 75 11                           	JNE	L714
  3436 00001FED                                 L684:
  3437 00001FED 47                              	INC	EDI
  3438 00001FEE 8D 9E 000001AC                  	LEA	EBX,DWORD [428+ESI]
  3439 00001FF4 83 FF 63                        	CMP	EDI,99
  3440 00001FF7 7E E1                           	JLE	L687
  3441 00001FF9 E9 FFFFFF5C                     	JMP	L711
  3442 00001FFE                                 L714:
  3443 00001FFE 8D 55 D4                        	LEA	EDX,DWORD [-44+EBP]
  3444 00002001 05 00039BD8                     	ADD	EAX,236504
  3445 00002006 52                              	PUSH	EDX
  3446 00002007 50                              	PUSH	EAX
  3447 00002008 E8 [00000000]                   	CALL	_strcmp
  3448 0000200D 5A                              	POP	EDX
  3449 0000200E 59                              	POP	ECX
  3450 0000200F 85 C0                           	TEST	EAX,EAX
  3451 00002011 75 DA                           	JNE	L684
  3452 00002013 03 1D [00000000]                	ADD	EBX,DWORD [_taskctl]
  3453 00002019 8D 83 00039A3C                  	LEA	EAX,DWORD [236092+EBX]
  3454 0000201F 50                              	PUSH	EAX
  3455 00002020 E8 [00000000]                   	CALL	_semaphore_signal
  3456 00002025 8D 45 D4                        	LEA	EAX,DWORD [-44+EBP]
  3457 00002028 50                              	PUSH	EAX
  3458 00002029 68 [00000543]                   	PUSH	LC82
  3459 0000202E                                 L706:
  3460 0000202E 8D 5D 94                        	LEA	EBX,DWORD [-108+EBP]
  3461 00002031 53                              	PUSH	EBX
  3462 00002032 E8 [00000000]                   	CALL	_sprintf
  3463 00002037 E9 FFFFFF7E                     	JMP	L708
  3464 0000203C                                 L681:
  3465 0000203C FC                              	CLD
  3466 0000203D 89 DE                           	MOV	ESI,EBX
  3467 0000203F BF [00000552]                   	MOV	EDI,LC83
  3468 00002044 B9 00000008                     	MOV	ECX,8
  3469 00002049 F3                              	REPE
  3470 0000204A A6                              	CMPSB
  3471 0000204B 75 5A                           	JNE	L689
  3472 0000204D 31 FF                           	XOR	EDI,EDI
  3473 0000204F 31 DB                           	XOR	EBX,EBX
  3474 00002051                                 L695:
  3475 00002051 89 D8                           	MOV	EAX,EBX
  3476 00002053 89 DE                           	MOV	ESI,EBX
  3477 00002055 03 05 [00000000]                	ADD	EAX,DWORD [_taskctl]
  3478 0000205B 83 B8 00039A40 00               	CMP	DWORD [236096+EAX],0
  3479 00002062 75 11                           	JNE	L715
  3480 00002064                                 L692:
  3481 00002064 47                              	INC	EDI
  3482 00002065 8D 9E 000001AC                  	LEA	EBX,DWORD [428+ESI]
  3483 0000206B 83 FF 63                        	CMP	EDI,99
  3484 0000206E 7E E1                           	JLE	L695
  3485 00002070 E9 FFFFFEE5                     	JMP	L711
  3486 00002075                                 L715:
  3487 00002075 8D 55 D4                        	LEA	EDX,DWORD [-44+EBP]
  3488 00002078 05 00039BD8                     	ADD	EAX,236504
  3489 0000207D 52                              	PUSH	EDX
  3490 0000207E 50                              	PUSH	EAX
  3491 0000207F E8 [00000000]                   	CALL	_strcmp
  3492 00002084 5A                              	POP	EDX
  3493 00002085 59                              	POP	ECX
  3494 00002086 85 C0                           	TEST	EAX,EAX
  3495 00002088 75 DA                           	JNE	L692
  3496 0000208A 03 1D [00000000]                	ADD	EBX,DWORD [_taskctl]
  3497 00002090 8D 83 00039A3C                  	LEA	EAX,DWORD [236092+EBX]
  3498 00002096 50                              	PUSH	EAX
  3499 00002097 E8 [00000000]                   	CALL	_semaphore_free
  3500 0000209C 8D 55 D4                        	LEA	EDX,DWORD [-44+EBP]
  3501 0000209F 52                              	PUSH	EDX
  3502 000020A0 68 [0000055A]                   	PUSH	LC84
  3503 000020A5 EB 87                           	JMP	L706
  3504 000020A7                                 L689:
  3505 000020A7 68 [00000574]                   	PUSH	LC85
  3506 000020AC E9 FFFFFEAE                     	JMP	L707
  3507 000020B1                                 L712:
  3508 000020B1 8D 45 90                        	LEA	EAX,DWORD [-112+EBP]
  3509 000020B4 8D 55 D4                        	LEA	EDX,DWORD [-44+EBP]
  3510 000020B7 50                              	PUSH	EAX
  3511 000020B8 8B 45 0C                        	MOV	EAX,DWORD [12+EBP]
  3512 000020BB 52                              	PUSH	EDX
  3513 000020BC 83 C0 04                        	ADD	EAX,4
  3514 000020BF 50                              	PUSH	EAX
  3515 000020C0 E8 FFFFE0EB                     	CALL	_parse_word_int
  3516 000020C5 83 C4 0C                        	ADD	ESP,12
  3517 000020C8 83 F8 02                        	CMP	EAX,2
  3518 000020CB 74 0A                           	JE	L716
  3519 000020CD 68 [000005B1]                   	PUSH	LC75
  3520 000020D2 E9 FFFFFE88                     	JMP	L707
  3521 000020D7                                 L716:
  3522 000020D7 FF 75 90                        	PUSH	DWORD [-112+EBP]
  3523 000020DA 8D 45 D4                        	LEA	EAX,DWORD [-44+EBP]
  3524 000020DD 50                              	PUSH	EAX
  3525 000020DE E8 [00000000]                   	CALL	_semaphore_alloc
  3526 000020E3 59                              	POP	ECX
  3527 000020E4 5B                              	POP	EBX
  3528 000020E5 85 C0                           	TEST	EAX,EAX
  3529 000020E7 74 26                           	JE	L667
  3530 000020E9 FF 75 90                        	PUSH	DWORD [-112+EBP]
  3531 000020EC 8D 55 D4                        	LEA	EDX,DWORD [-44+EBP]
  3532 000020EF 8D 5D 94                        	LEA	EBX,DWORD [-108+EBP]
  3533 000020F2 52                              	PUSH	EDX
  3534 000020F3 68 [000005D3]                   	PUSH	LC73
  3535 000020F8 53                              	PUSH	EBX
  3536 000020F9 E8 [00000000]                   	CALL	_sprintf
  3537 000020FE 53                              	PUSH	EBX
  3538 000020FF                                 L709:
  3539 000020FF FF 75 08                        	PUSH	DWORD [8+EBP]
  3540 00002102 E8 FFFFE6FA                     	CALL	_cons_putstr0
  3541 00002107 83 C4 18                        	ADD	ESP,24
  3542 0000210A E9 FFFFFE5A                     	JMP	L663
  3543 0000210F                                 L667:
  3544 0000210F 68 [000005F9]                   	PUSH	LC74
  3545 00002114 E9 FFFFFE46                     	JMP	L707
  3546 00002119                                 L664:
  3547 00002119 68 [000005B1]                   	PUSH	LC75
  3548 0000211E FF 75 08                        	PUSH	DWORD [8+EBP]
  3549 00002121 E8 FFFFE6DB                     	CALL	_cons_putstr0
  3550 00002126 68 [00000615]                   	PUSH	LC86
  3551 0000212B FF 75 08                        	PUSH	DWORD [8+EBP]
  3552 0000212E E8 FFFFE6CE                     	CALL	_cons_putstr0
  3553 00002133 68 [0000062D]                   	PUSH	LC87
  3554 00002138 EB C5                           	JMP	L709
  3555                                          [SECTION .data]
  3556 00000647                                 LC91:
  3557 00000647 73 65 6E 64 00                  	DB	"send",0x00
  3558 0000064C                                 LC93:
  3559 0000064C 72 65 63 76 00                  	DB	"recv",0x00
  3560 00000651                                 LC96:
  3561 00000651 4D 65 73 73 61 67 65 20 71 75   	DB	"Message queue not found",0x0A,0x00
       0000065B 65 75 65 20 6E 6F 74 20 66 6F 
       00000665 75 6E 64 0A 00 
  3562 0000066A                                 LC95:
  3563 0000066A 4D 65 73 73 61 67 65 20 71 75   	DB	"Message queue '%s' destroyed",0x0A,0x00
       00000674 65 75 65 20 27 25 73 27 20 64 
       0000067E 65 73 74 72 6F 79 65 64 0A 00 
  3564 00000688                                 LC97:
  3565 00000688 55 6E 6B 6E 6F 77 6E 20 6F 70   	DB	"Unknown operation. Available: create, send, recv, destroy",0x0A,0x00
       00000692 65 72 61 74 69 6F 6E 2E 20 41 
       0000069C 76 61 69 6C 61 62 6C 65 3A 20 
       000006A6 63 72 65 61 74 65 2C 20 73 65 
       000006B0 6E 64 2C 20 72 65 63 76 2C 20 
       000006BA 64 65 73 74 72 6F 79 0A 00 
  3566 000006C3                                 LC94:
  3567 000006C3 4D 65 73 73 61 67 65 20 72 65   	DB	"Message receive: simplified implementation",0x0A,0x00
       000006CD 63 65 69 76 65 3A 20 73 69 6D 
       000006D7 70 6C 69 66 69 65 64 20 69 6D 
       000006E1 70 6C 65 6D 65 6E 74 61 74 69 
       000006EB 6F 6E 0A 00 
  3568 000006EF                                 LC92:
  3569 000006EF 4D 65 73 73 61 67 65 20 73 65   	DB	"Message send: simplified implementation",0x0A,0x00
       000006F9 6E 64 3A 20 73 69 6D 70 6C 69 
       00000703 66 69 65 64 20 69 6D 70 6C 65 
       0000070D 6D 65 6E 74 61 74 69 6F 6E 0A 
       00000717 00 
  3570 00000718                                 LC90:
  3571 00000718 55 73 61 67 65 3A 20 6D 73 67   	DB	"Usage: msg create <name> <max>",0x0A,0x00
       00000722 20 63 72 65 61 74 65 20 3C 6E 
       0000072C 61 6D 65 3E 20 3C 6D 61 78 3E 
       00000736 0A 00 
  3572 00000738                                 LC88:
  3573 00000738 4D 65 73 73 61 67 65 20 71 75   	DB	"Message queue '%s' created (max: %d)",0x0A,0x00
       00000742 65 75 65 20 27 25 73 27 20 63 
       0000074C 72 65 61 74 65 64 20 28 6D 61 
       00000756 78 3A 20 25 64 29 0A 00 
  3574 0000075E                                 LC89:
  3575 0000075E 46 61 69 6C 65 64 20 74 6F 20   	DB	"Failed to create message queue",0x0A,0x00
       00000768 63 72 65 61 74 65 20 6D 65 73 
       00000772 73 61 67 65 20 71 75 65 75 65 
       0000077C 0A 00 
  3576 0000077E                                 LC98:
  3577 0000077E 20 20 20 20 20 20 20 6D 73 67   	DB	"       msg send <name> <data>",0x0A,0x00
       00000788 20 73 65 6E 64 20 3C 6E 61 6D 
       00000792 65 3E 20 3C 64 61 74 61 3E 0A 
       0000079C 00 
  3578 0000079D                                 LC99:
  3579 0000079D 20 20 20 20 20 20 20 6D 73 67   	DB	"       msg recv <name>",0x0A,0x00
       000007A7 20 72 65 63 76 20 3C 6E 61 6D 
       000007B1 65 3E 0A 00 
  3580                                          [SECTION .text]
  3581 0000213A                                 	GLOBAL	_cmd_message
  3582 0000213A                                 _cmd_message:
  3583 0000213A 55                              	PUSH	EBP
  3584 0000213B 89 E5                           	MOV	EBP,ESP
  3585 0000213D 57                              	PUSH	EDI
  3586 0000213E 56                              	PUSH	ESI
  3587 0000213F 53                              	PUSH	EBX
  3588 00002140 8D 45 D4                        	LEA	EAX,DWORD [-44+EBP]
  3589 00002143 83 EC 64                        	SUB	ESP,100
  3590 00002146 8D 5D E4                        	LEA	EBX,DWORD [-28+EBP]
  3591 00002149 50                              	PUSH	EAX
  3592 0000214A 53                              	PUSH	EBX
  3593 0000214B FF 75 0C                        	PUSH	DWORD [12+EBP]
  3594 0000214E E8 FFFFDFA9                     	CALL	_parse_command_words
  3595 00002153 83 C4 0C                        	ADD	ESP,12
  3596 00002156 48                              	DEC	EAX
  3597 00002157 0F 8E 0000014B                  	JLE	L718
  3598 0000215D FC                              	CLD
  3599 0000215E 89 DE                           	MOV	ESI,EBX
  3600 00002160 BF [000004F9]                   	MOV	EDI,LC72
  3601 00002165 B9 00000007                     	MOV	ECX,7
  3602 0000216A F3                              	REPE
  3603 0000216B A6                              	CMPSB
  3604 0000216C 0F 84 000000CE                  	JE	L743
  3605 00002172 FC                              	CLD
  3606 00002173 89 DE                           	MOV	ESI,EBX
  3607 00002175 BF [00000647]                   	MOV	EDI,LC91
  3608 0000217A B9 00000005                     	MOV	ECX,5
  3609 0000217F F3                              	REPE
  3610 00002180 A6                              	CMPSB
  3611 00002181 0F 84 000000B2                  	JE	L744
  3612 00002187 FC                              	CLD
  3613 00002188 89 DE                           	MOV	ESI,EBX
  3614 0000218A BF [0000064C]                   	MOV	EDI,LC93
  3615 0000218F B9 00000005                     	MOV	ECX,5
  3616 00002194 F3                              	REPE
  3617 00002195 A6                              	CMPSB
  3618 00002196 0F 84 00000096                  	JE	L745
  3619 0000219C FC                              	CLD
  3620 0000219D 89 DE                           	MOV	ESI,EBX
  3621 0000219F BF [00000552]                   	MOV	EDI,LC83
  3622 000021A4 B9 00000008                     	MOV	ECX,8
  3623 000021A9 F3                              	REPE
  3624 000021AA A6                              	CMPSB
  3625 000021AB 75 7E                           	JNE	L729
  3626 000021AD 31 FF                           	XOR	EDI,EDI
  3627 000021AF 31 DB                           	XOR	EBX,EBX
  3628 000021B1                                 L735:
  3629 000021B1 89 D8                           	MOV	EAX,EBX
  3630 000021B3 89 DE                           	MOV	ESI,EBX
  3631 000021B5 03 05 [00000000]                	ADD	EAX,DWORD [_taskctl]
  3632 000021BB 83 B8 0004416C 00               	CMP	DWORD [278892+EAX],0
  3633 000021C2 75 23                           	JNE	L746
  3634 000021C4                                 L732:
  3635 000021C4 47                              	INC	EDI
  3636 000021C5 8D 9E 000001B8                  	LEA	EBX,DWORD [440+ESI]
  3637 000021CB 83 FF 31                        	CMP	EDI,49
  3638 000021CE 7E E1                           	JLE	L735
  3639 000021D0 68 [00000651]                   	PUSH	LC96
  3640 000021D5                                 L741:
  3641 000021D5 FF 75 08                        	PUSH	DWORD [8+EBP]
  3642 000021D8 E8 FFFFE624                     	CALL	_cons_putstr0
  3643 000021DD 5E                              	POP	ESI
  3644 000021DE 5F                              	POP	EDI
  3645 000021DF                                 L717:
  3646 000021DF 8D 65 F4                        	LEA	ESP,DWORD [-12+EBP]
  3647 000021E2 5B                              	POP	EBX
  3648 000021E3 5E                              	POP	ESI
  3649 000021E4 5F                              	POP	EDI
  3650 000021E5 5D                              	POP	EBP
  3651 000021E6 C3                              	RET
  3652 000021E7                                 L746:
  3653 000021E7 8D 55 D4                        	LEA	EDX,DWORD [-44+EBP]
  3654 000021EA 05 00044314                     	ADD	EAX,279316
  3655 000021EF 52                              	PUSH	EDX
  3656 000021F0 50                              	PUSH	EAX
  3657 000021F1 E8 [00000000]                   	CALL	_strcmp
  3658 000021F6 5A                              	POP	EDX
  3659 000021F7 59                              	POP	ECX
  3660 000021F8 85 C0                           	TEST	EAX,EAX
  3661 000021FA 75 C8                           	JNE	L732
  3662 000021FC 03 1D [00000000]                	ADD	EBX,DWORD [_taskctl]
  3663 00002202 8D 83 0004416C                  	LEA	EAX,DWORD [278892+EBX]
  3664 00002208 8D 5D 94                        	LEA	EBX,DWORD [-108+EBP]
  3665 0000220B 50                              	PUSH	EAX
  3666 0000220C E8 [00000000]                   	CALL	_msgqueue_free
  3667 00002211 8D 45 D4                        	LEA	EAX,DWORD [-44+EBP]
  3668 00002214 50                              	PUSH	EAX
  3669 00002215 68 [0000066A]                   	PUSH	LC95
  3670 0000221A 53                              	PUSH	EBX
  3671 0000221B E8 [00000000]                   	CALL	_sprintf
  3672 00002220 53                              	PUSH	EBX
  3673 00002221 FF 75 08                        	PUSH	DWORD [8+EBP]
  3674 00002224 E8 FFFFE5D8                     	CALL	_cons_putstr0
  3675 00002229 EB B4                           	JMP	L717
  3676 0000222B                                 L729:
  3677 0000222B 68 [00000688]                   	PUSH	LC97
  3678 00002230 EB A3                           	JMP	L741
  3679 00002232                                 L745:
  3680 00002232 68 [000006C3]                   	PUSH	LC94
  3681 00002237 EB 9C                           	JMP	L741
  3682 00002239                                 L744:
  3683 00002239 68 [000006EF]                   	PUSH	LC92
  3684 0000223E EB 95                           	JMP	L741
  3685 00002240                                 L743:
  3686 00002240 8D 45 90                        	LEA	EAX,DWORD [-112+EBP]
  3687 00002243 8D 55 D4                        	LEA	EDX,DWORD [-44+EBP]
  3688 00002246 50                              	PUSH	EAX
  3689 00002247 8B 45 0C                        	MOV	EAX,DWORD [12+EBP]
  3690 0000224A 52                              	PUSH	EDX
  3691 0000224B 83 C0 04                        	ADD	EAX,4
  3692 0000224E 50                              	PUSH	EAX
  3693 0000224F E8 FFFFDF5C                     	CALL	_parse_word_int
  3694 00002254 83 C4 0C                        	ADD	ESP,12
  3695 00002257 83 F8 02                        	CMP	EAX,2
  3696 0000225A 74 0A                           	JE	L747
  3697 0000225C 68 [00000718]                   	PUSH	LC90
  3698 00002261 E9 FFFFFF6F                     	JMP	L741
  3699 00002266                                 L747:
  3700 00002266 FF 75 90                        	PUSH	DWORD [-112+EBP]
  3701 00002269 8D 45 D4                        	LEA	EAX,DWORD [-44+EBP]
  3702 0000226C 50                              	PUSH	EAX
  3703 0000226D E8 [00000000]                   	CALL	_msgqueue_alloc
  3704 00002272 5B                              	POP	EBX
  3705 00002273 5E                              	POP	ESI
  3706 00002274 85 C0                           	TEST	EAX,EAX
  3707 00002276 74 26                           	JE	L721
  3708 00002278 FF 75 90                        	PUSH	DWORD [-112+EBP]
  3709 0000227B 8D 55 D4                        	LEA	EDX,DWORD [-44+EBP]
  3710 0000227E 8D 5D 94                        	LEA	EBX,DWORD [-108+EBP]
  3711 00002281 52                              	PUSH	EDX
  3712 00002282 68 [00000738]                   	PUSH	LC88
  3713 00002287 53                              	PUSH	EBX
  3714 00002288 E8 [00000000]                   	CALL	_sprintf
  3715 0000228D 53                              	PUSH	EBX
  3716 0000228E                                 L742:
  3717 0000228E FF 75 08                        	PUSH	DWORD [8+EBP]
  3718 00002291 E8 FFFFE56B                     	CALL	_cons_putstr0
  3719 00002296 83 C4 18                        	ADD	ESP,24
  3720 00002299 E9 FFFFFF41                     	JMP	L717
  3721 0000229E                                 L721:
  3722 0000229E 68 [0000075E]                   	PUSH	LC89
  3723 000022A3 E9 FFFFFF2D                     	JMP	L741
  3724 000022A8                                 L718:
  3725 000022A8 68 [00000718]                   	PUSH	LC90
  3726 000022AD FF 75 08                        	PUSH	DWORD [8+EBP]
  3727 000022B0 E8 FFFFE54C                     	CALL	_cons_putstr0
  3728 000022B5 68 [0000077E]                   	PUSH	LC98
  3729 000022BA FF 75 08                        	PUSH	DWORD [8+EBP]
  3730 000022BD E8 FFFFE53F                     	CALL	_cons_putstr0
  3731 000022C2 68 [0000079D]                   	PUSH	LC99
  3732 000022C7 EB C5                           	JMP	L742
